	.file	"regtest.cpp"
	.text
.Ltext0:
	.file 0 "/home/jakjm/Desktop/JeremyTrie/BoundedMinReg" "regtest.cpp"
	.section	.text._ZNKSt5ctypeIcE8do_widenEc,"axG",@progbits,_ZNKSt5ctypeIcE8do_widenEc,comdat
	.align 2
	.p2align 4
	.weak	_ZNKSt5ctypeIcE8do_widenEc
	.type	_ZNKSt5ctypeIcE8do_widenEc, @function
_ZNKSt5ctypeIcE8do_widenEc:
.LVL0:
.LFB1755:
	.file 1 "/usr/include/c++/13.1.1/bits/locale_facets.h"
	.loc 1 1092 7 view -0
	.cfi_startproc
	.loc 1 1093 9 view .LVU1
	.loc 1 1092 7 is_stmt 0 view .LVU2
	movl	%esi, %eax
	.loc 1 1093 21 view .LVU3
	ret
	.cfi_endproc
.LFE1755:
	.size	_ZNKSt5ctypeIcE8do_widenEc, .-_ZNKSt5ctypeIcE8do_widenEc
	.section	.text._ZNSt6thread24_M_thread_deps_never_runEv,"axG",@progbits,_ZNSt6thread24_M_thread_deps_never_runEv,comdat
	.p2align 4
	.weak	_ZNSt6thread24_M_thread_deps_never_runEv
	.type	_ZNSt6thread24_M_thread_deps_never_runEv, @function
_ZNSt6thread24_M_thread_deps_never_runEv:
.LFB2374:
	.file 2 "/usr/include/c++/13.1.1/bits/std_thread.h"
	.loc 2 143 5 is_stmt 1 view -0
	.cfi_startproc
	.loc 2 148 5 is_stmt 0 view .LVU5
	ret
	.cfi_endproc
.LFE2374:
	.size	_ZNSt6thread24_M_thread_deps_never_runEv, .-_ZNSt6thread24_M_thread_deps_never_runEv
	.section	.text._ZNSt6thread11_State_implINS_8_InvokerISt5tupleIJPFvP14BoundedMinReg2ILi16EEES5_EEEEE6_M_runEv,"axG",@progbits,_ZNSt6thread11_State_implINS_8_InvokerISt5tupleIJPFvP14BoundedMinReg2ILi16EEES5_EEEEE6_M_runEv,comdat
	.align 2
	.p2align 4
	.weak	_ZNSt6thread11_State_implINS_8_InvokerISt5tupleIJPFvP14BoundedMinReg2ILi16EEES5_EEEEE6_M_runEv
	.type	_ZNSt6thread11_State_implINS_8_InvokerISt5tupleIJPFvP14BoundedMinReg2ILi16EEES5_EEEEE6_M_runEv, @function
_ZNSt6thread11_State_implINS_8_InvokerISt5tupleIJPFvP14BoundedMinReg2ILi16EEES5_EEEEE6_M_runEv:
.LVL1:
.LFB3472:
	.loc 2 244 2 is_stmt 1 view -0
	.cfi_startproc
.LBB777:
.LBI777:
	.loc 2 295 2 view .LVU7
.LBB778:
.LBB779:
.LBI779:
	.loc 2 291 4 view .LVU8
.LBB780:
.LBI780:
	.file 3 "/usr/include/c++/13.1.1/bits/invoke.h"
	.loc 3 90 5 view .LVU9
.LBB781:
.LBB782:
.LBI782:
	.loc 3 60 5 view .LVU10
.LBB783:
	.loc 3 61 36 is_stmt 0 view .LVU11
	movq	8(%rdi), %rdx
	movq	16(%rdi), %rax
	movq	%rdx, %rdi
.LVL2:
	.loc 3 61 36 view .LVU12
	jmp	*%rax
.LVL3:
.LBE783:
.LBE782:
.LBE781:
.LBE780:
.LBE779:
.LBE778:
.LBE777:
	.cfi_endproc
.LFE3472:
	.size	_ZNSt6thread11_State_implINS_8_InvokerISt5tupleIJPFvP14BoundedMinReg2ILi16EEES5_EEEEE6_M_runEv, .-_ZNSt6thread11_State_implINS_8_InvokerISt5tupleIJPFvP14BoundedMinReg2ILi16EEES5_EEEEE6_M_runEv
	.section	.text._ZNSt6thread11_State_implINS_8_InvokerISt5tupleIJPFvP14BoundedMinReg2ILi16EEES5_EEEEED2Ev,"axG",@progbits,_ZNSt6thread11_State_implINS_8_InvokerISt5tupleIJPFvP14BoundedMinReg2ILi16EEES5_EEEEED5Ev,comdat
	.align 2
	.p2align 4
	.weak	_ZNSt6thread11_State_implINS_8_InvokerISt5tupleIJPFvP14BoundedMinReg2ILi16EEES5_EEEEED2Ev
	.type	_ZNSt6thread11_State_implINS_8_InvokerISt5tupleIJPFvP14BoundedMinReg2ILi16EEES5_EEEEED2Ev, @function
_ZNSt6thread11_State_implINS_8_InvokerISt5tupleIJPFvP14BoundedMinReg2ILi16EEES5_EEEEED2Ev:
.LVL4:
.LFB3469:
	.loc 2 234 14 is_stmt 1 view -0
	.cfi_startproc
.LBB784:
	.loc 2 234 14 is_stmt 0 view .LVU14
	leaq	16+_ZTVNSt6thread11_State_implINS_8_InvokerISt5tupleIJPFvP14BoundedMinReg2ILi16EEES5_EEEEEE(%rip), %rax
	movq	%rax, (%rdi)
	jmp	_ZNSt6thread6_StateD2Ev@PLT
.LVL5:
	.loc 2 234 14 view .LVU15
.LBE784:
	.cfi_endproc
.LFE3469:
	.size	_ZNSt6thread11_State_implINS_8_InvokerISt5tupleIJPFvP14BoundedMinReg2ILi16EEES5_EEEEED2Ev, .-_ZNSt6thread11_State_implINS_8_InvokerISt5tupleIJPFvP14BoundedMinReg2ILi16EEES5_EEEEED2Ev
	.weak	_ZNSt6thread11_State_implINS_8_InvokerISt5tupleIJPFvP14BoundedMinReg2ILi16EEES5_EEEEED1Ev
	.set	_ZNSt6thread11_State_implINS_8_InvokerISt5tupleIJPFvP14BoundedMinReg2ILi16EEES5_EEEEED1Ev,_ZNSt6thread11_State_implINS_8_InvokerISt5tupleIJPFvP14BoundedMinReg2ILi16EEES5_EEEEED2Ev
	.section	.text._ZNSt6thread11_State_implINS_8_InvokerISt5tupleIJPFvP14BoundedMinReg2ILi16EEES5_EEEEED0Ev,"axG",@progbits,_ZNSt6thread11_State_implINS_8_InvokerISt5tupleIJPFvP14BoundedMinReg2ILi16EEES5_EEEEED5Ev,comdat
	.align 2
	.p2align 4
	.weak	_ZNSt6thread11_State_implINS_8_InvokerISt5tupleIJPFvP14BoundedMinReg2ILi16EEES5_EEEEED0Ev
	.type	_ZNSt6thread11_State_implINS_8_InvokerISt5tupleIJPFvP14BoundedMinReg2ILi16EEES5_EEEEED0Ev, @function
_ZNSt6thread11_State_implINS_8_InvokerISt5tupleIJPFvP14BoundedMinReg2ILi16EEES5_EEEEED0Ev:
.LVL6:
.LFB3471:
	.loc 2 234 14 is_stmt 1 view -0
	.cfi_startproc
.LBB785:
.LBI785:
	.loc 2 234 14 view .LVU17
.LBB786:
	leaq	16+_ZTVNSt6thread11_State_implINS_8_InvokerISt5tupleIJPFvP14BoundedMinReg2ILi16EEES5_EEEEEE(%rip), %rax
.LBE786:
.LBE785:
	pushq	%rbx
	.cfi_def_cfa_offset 16
	.cfi_offset 3, -16
	.loc 2 234 14 is_stmt 0 view .LVU18
	movq	%rdi, %rbx
.LBB788:
.LBB787:
	movq	%rax, (%rdi)
	call	_ZNSt6thread6_StateD2Ev@PLT
.LVL7:
	.loc 2 234 14 view .LVU19
.LBE787:
.LBE788:
	.loc 2 234 14 discriminator 1 view .LVU20
	movq	%rbx, %rdi
	movl	$24, %esi
	.loc 2 234 14 view .LVU21
	popq	%rbx
	.cfi_def_cfa_offset 8
.LVL8:
	.loc 2 234 14 discriminator 1 view .LVU22
	jmp	_ZdlPvm@PLT
.LVL9:
	.loc 2 234 14 discriminator 1 view .LVU23
	.cfi_endproc
.LFE3471:
	.size	_ZNSt6thread11_State_implINS_8_InvokerISt5tupleIJPFvP14BoundedMinReg2ILi16EEES5_EEEEED0Ev, .-_ZNSt6thread11_State_implINS_8_InvokerISt5tupleIJPFvP14BoundedMinReg2ILi16EEES5_EEEEED0Ev
	.section	.rodata.str1.8,"aMS",@progbits,1
	.align 8
.LC0:
	.string	"void task2(BoundedMinReg2<16>*)"
	.section	.rodata.str1.1,"aMS",@progbits,1
.LC1:
	.string	"regtest.cpp"
.LC2:
	.string	"x <= i"
	.text
	.p2align 4
	.globl	_Z5task2P14BoundedMinReg2ILi16EE
	.type	_Z5task2P14BoundedMinReg2ILi16EE, @function
_Z5task2P14BoundedMinReg2ILi16EE:
.LVL10:
.LFB2693:
	.file 4 "regtest.cpp"
	.loc 4 11 34 is_stmt 1 view -0
	.cfi_startproc
	.loc 4 12 5 view .LVU25
	.loc 4 13 5 view .LVU26
	.loc 4 13 18 discriminator 1 view .LVU27
	.loc 4 11 34 is_stmt 0 view .LVU28
	pushq	%r15
	.cfi_def_cfa_offset 16
	.cfi_offset 15, -16
	movq	%rdi, %r9
	.loc 4 13 11 view .LVU29
	movl	$99, %r11d
.LBB822:
.LBB823:
	.file 5 "minreg.h"
	.loc 5 245 13 view .LVU30
	xorl	%r8d, %r8d
.LBE823:
.LBE822:
	.loc 4 11 34 view .LVU31
	pushq	%r14
	.cfi_def_cfa_offset 24
	.cfi_offset 14, -24
.LBB863:
.LBB861:
.LBB824:
.LBB825:
.LBB826:
	.loc 5 34 9 view .LVU32
	movl	$1, %edi
.LVL11:
	.loc 5 34 9 view .LVU33
.LBE826:
.LBE825:
.LBB832:
.LBB833:
.LBB834:
.LBB835:
	.loc 5 189 36 view .LVU34
	movl	$7, %r10d
.LBE835:
.LBE834:
.LBE833:
.LBE832:
.LBE824:
.LBE861:
.LBE863:
	.loc 4 11 34 view .LVU35
	pushq	%r13
	.cfi_def_cfa_offset 32
	.cfi_offset 13, -32
	pushq	%r12
	.cfi_def_cfa_offset 40
	.cfi_offset 12, -40
	pushq	%rbp
	.cfi_def_cfa_offset 48
	.cfi_offset 6, -48
	pushq	%rbx
	.cfi_def_cfa_offset 56
	.cfi_offset 3, -56
	subq	$8, %rsp
	.cfi_def_cfa_offset 64
.LVL12:
	.p2align 4,,10
	.p2align 3
.L22:
	.loc 4 13 11 view .LVU36
	movl	%r11d, %ebx
.LBB864:
.LBB862:
	.loc 5 245 13 view .LVU37
	xorl	%esi, %esi
	.loc 5 244 13 view .LVU38
	movl	$128, %edx
	jmp	.L14
.LVL13:
	.p2align 4,,10
	.p2align 3
.L9:
.LBB851:
.LBB848:
	.loc 5 259 29 view .LVU39
	movl	%eax, %edx
.LVL14:
	.loc 5 258 29 view .LVU40
	leal	1(%rsi,%rsi), %esi
.LVL15:
	.loc 5 258 29 view .LVU41
.LBE848:
.LBE851:
	.loc 5 261 28 is_stmt 1 view .LVU42
	testl	%edx, %edx
	jle	.L15
.LVL16:
.L14:
.LBB852:
.LBB849:
.LBI825:
	.loc 5 28 19 view .LVU43
.LBB831:
	.loc 5 29 5 view .LVU44
.LBB827:
.LBI827:
	.loc 5 10 19 view .LVU45
.LBB828:
	.loc 5 11 5 view .LVU46
	.loc 5 11 16 is_stmt 0 view .LVU47
	movl	%edx, %eax
.LBE828:
.LBE827:
	.loc 5 34 9 view .LVU48
	movl	%edi, %ebp
.LBB830:
.LBB829:
	.loc 5 11 16 view .LVU49
	sarl	%eax
	.loc 5 11 7 view .LVU50
	orl	%edx, %eax
.LVL17:
	.loc 5 12 5 is_stmt 1 view .LVU51
	.loc 5 12 16 is_stmt 0 view .LVU52
	movl	%eax, %ecx
	sarl	$2, %ecx
	.loc 5 12 7 view .LVU53
	orl	%ecx, %eax
.LVL18:
	.loc 5 13 5 is_stmt 1 view .LVU54
	.loc 5 13 16 is_stmt 0 view .LVU55
	movl	%eax, %ecx
	sarl	$4, %ecx
	.loc 5 13 7 view .LVU56
	orl	%ecx, %eax
.LVL19:
	.loc 5 14 5 is_stmt 1 view .LVU57
	.loc 5 14 16 is_stmt 0 view .LVU58
	movl	%eax, %ecx
	sarl	$8, %ecx
	.loc 5 14 7 view .LVU59
	orl	%ecx, %eax
.LVL20:
	.loc 5 15 5 is_stmt 1 view .LVU60
	.loc 5 15 16 is_stmt 0 view .LVU61
	movl	%eax, %ecx
	sarl	$16, %ecx
	.loc 5 15 7 view .LVU62
	orl	%ecx, %eax
.LVL21:
	.loc 5 16 5 is_stmt 1 view .LVU63
	.loc 5 16 19 is_stmt 0 view .LVU64
	movl	%eax, %ecx
	sarl	%ecx
	.loc 5 16 23 view .LVU65
	subl	%ecx, %eax
.LVL22:
	.loc 5 16 23 view .LVU66
.LBE829:
.LBE830:
	.loc 5 30 5 is_stmt 1 view .LVU67
	.loc 5 30 9 is_stmt 0 view .LVU68
	movl	%eax, %r13d
	.loc 5 32 21 view .LVU69
	movl	%eax, %ecx
	.loc 5 30 9 view .LVU70
	sarl	%r13d
.LVL23:
	.loc 5 32 5 is_stmt 1 view .LVU71
	.loc 5 32 21 is_stmt 0 view .LVU72
	andl	$-2, %ecx
	addl	%r13d, %ecx
	.loc 5 32 37 view .LVU73
	cmpl	%edx, %ecx
	.loc 5 32 9 view .LVU74
	setg	%cl
	.loc 5 32 37 view .LVU75
	setg	%r12b
.LVL24:
	.loc 5 33 5 is_stmt 1 view .LVU76
	.loc 5 34 5 view .LVU77
	.loc 5 36 5 view .LVU78
	.loc 5 32 9 is_stmt 0 view .LVU79
	movzbl	%cl, %ecx
.LVL25:
	.loc 5 34 34 view .LVU80
	addl	%ecx, %ecx
.LVL26:
	.loc 5 34 9 view .LVU81
	subl	%ecx, %ebp
	.loc 5 36 62 view .LVU82
	leal	-1(%rax), %ecx
	.loc 5 36 54 view .LVU83
	movl	%ebp, %eax
.LVL27:
	.loc 5 36 54 view .LVU84
	imull	%ecx, %eax
	.loc 5 36 35 view .LVU85
	testb	%r12b, %r12b
	.loc 5 36 30 view .LVU86
	leal	-1(%rdx,%r13), %ecx
.LVL28:
	.loc 5 36 35 view .LVU87
	cmove	%r8d, %ecx
	.loc 5 36 9 view .LVU88
	addl	%ecx, %eax
.LVL29:
	.loc 5 37 5 is_stmt 1 view .LVU89
	.loc 5 37 5 is_stmt 0 view .LVU90
.LBE831:
.LBE849:
.LBB850:
	.loc 5 248 13 view .LVU91
	cmpl	%eax, %ebx
	jle	.L9
.LVL30:
.LBB847:
.LBB846:
.LBI834:
	.loc 5 186 14 is_stmt 1 view .LVU92
.LBB845:
.LBB836:
.LBB837:
.LBB838:
	.file 6 "/usr/include/c++/13.1.1/bits/atomic_base.h"
	.loc 6 505 24 is_stmt 0 view .LVU93
.LBE838:
.LBE837:
.LBE836:
	.loc 5 188 17 view .LVU94
	movl	%esi, %ecx
	sarl	$31, %ecx
	shrl	$29, %ecx
	leal	(%rsi,%rcx), %ebp
	andl	$7, %ebp
	subl	%ecx, %ebp
	.loc 5 189 36 view .LVU95
	movl	%r10d, %ecx
	subl	%ebp, %ecx
	.loc 5 189 30 view .LVU96
	movl	%edi, %ebp
	sall	%cl, %ebp
.LVL31:
.LBB843:
.LBI836:
	.loc 6 364 7 is_stmt 1 view .LVU97
.LBB841:
.LBI837:
	.loc 6 498 7 view .LVU98
.LBB839:
	.loc 6 502 2 discriminator 2 view .LVU99
	.loc 6 503 2 discriminator 2 view .LVU100
.LBE839:
.LBE841:
.LBE843:
	.loc 5 187 17 is_stmt 0 view .LVU101
	testl	%esi, %esi
	leal	7(%rsi), %ecx
	cmovns	%esi, %ecx
	sarl	$3, %ecx
.LBB844:
.LBB842:
.LBB840:
	.loc 6 505 25 view .LVU102
	movslq	%ecx, %rcx
	.loc 6 505 24 view .LVU103
	movzbl	(%r9,%rcx), %ecx
.LVL32:
	.loc 6 505 24 view .LVU104
.LBE840:
.LBE842:
.LBE844:
.LBE845:
.LBE846:
	.loc 5 250 17 view .LVU105
	notl	%ecx
.LVL33:
	.loc 5 250 17 view .LVU106
	testb	%bpl, %cl
	jne	.L15
	.loc 5 252 47 view .LVU107
	subl	%eax, %edx
.LVL34:
	.loc 5 253 27 view .LVU108
	subl	%eax, %ebx
.LVL35:
	.loc 5 251 33 view .LVU109
	leal	2(%rsi,%rsi), %esi
.LVL36:
	.loc 5 252 33 view .LVU110
	subl	$1, %edx
.LVL37:
	.loc 5 253 23 view .LVU111
	subl	$1, %ebx
.LVL38:
	.loc 5 253 23 view .LVU112
.LBE847:
.LBE850:
.LBE852:
	.loc 5 261 28 is_stmt 1 view .LVU113
	testl	%edx, %edx
	jg	.L14
.LVL39:
.L15:
	.loc 5 263 27 view .LVU114
	testl	%esi, %esi
	jg	.L11
	.loc 5 263 27 is_stmt 0 view .LVU115
	jmp	.L12
.LVL40:
	.p2align 4,,10
	.p2align 3
.L16:
	.loc 5 263 27 is_stmt 1 view .LVU116
	testl	%esi, %esi
	je	.L12
.LVL41:
.L11:
.LBB853:
	.loc 5 264 39 is_stmt 0 view .LVU117
	leal	-1(%rsi), %eax
	movl	%esi, %edx
	.loc 5 264 17 view .LVU118
	movl	%eax, %esi
.LVL42:
	.loc 5 264 17 view .LVU119
	sarl	%esi
.LVL43:
	.loc 5 265 13 view .LVU120
	andl	$1, %edx
.LVL44:
	.loc 5 265 13 view .LVU121
	je	.L16
.LVL45:
.LBB854:
.LBI854:
	.loc 5 195 14 is_stmt 1 view .LVU122
.LBB855:
.LBB856:
.LBI856:
	.loc 6 653 7 view .LVU123
.LBE856:
	.loc 5 198 43 is_stmt 0 view .LVU124
	movl	%esi, %ecx
	movl	%edi, %edx
	.loc 5 196 17 view .LVU125
	sarl	$4, %eax
.LVL46:
	.loc 5 198 43 view .LVU126
	notl	%ecx
.LBB859:
.LBB857:
	.loc 6 655 35 view .LVU127
	cltq
	.loc 6 655 35 view .LVU128
.LBE857:
.LBE859:
	.loc 5 198 43 view .LVU129
	andl	$7, %ecx
	sall	%cl, %edx
	.loc 5 198 21 view .LVU130
	notl	%edx
.LBB860:
.LBB858:
	.loc 6 655 34 view .LVU131
	lock andb	%dl, (%r9,%rax)
.LVL47:
	.loc 6 655 34 view .LVU132
.LBE858:
.LBE860:
.LBE855:
.LBE854:
.LBE853:
	.loc 5 263 27 is_stmt 1 view .LVU133
	testl	%esi, %esi
	jne	.L11
.LVL48:
.L12:
	.loc 5 263 27 is_stmt 0 view .LVU134
.LBE862:
.LBE864:
.LBB865:
.LBB866:
	.loc 5 291 13 view .LVU135
	xorl	%ebx, %ebx
.LVL49:
	.loc 5 290 28 view .LVU136
	movl	$128, %esi
.LVL50:
	.loc 5 290 13 view .LVU137
	xorl	%edx, %edx
.LVL51:
	.p2align 4,,10
	.p2align 3
.L20:
.LBB867:
.LBB868:
.LBI868:
	.loc 5 186 14 is_stmt 1 view .LVU138
.LBB869:
.LBB870:
.LBB871:
.LBB872:
	.loc 6 505 24 is_stmt 0 view .LVU139
.LBE872:
.LBE871:
.LBE870:
	.loc 5 188 17 view .LVU140
	movl	%edx, %ecx
	.loc 5 189 30 view .LVU141
	movl	%edi, %ebp
.LBE869:
.LBE868:
.LBB884:
.LBB885:
	.loc 5 34 9 view .LVU142
	movl	%edi, %r15d
.LBE885:
.LBE884:
.LBB895:
.LBB882:
	.loc 5 188 17 view .LVU143
	sarl	$31, %ecx
	shrl	$29, %ecx
	leal	(%rdx,%rcx), %eax
	andl	$7, %eax
	subl	%ecx, %eax
	.loc 5 189 36 view .LVU144
	movl	%r10d, %ecx
	subl	%eax, %ecx
	.loc 5 187 17 view .LVU145
	leal	7(%rdx), %eax
	.loc 5 189 30 view .LVU146
	sall	%cl, %ebp
.LVL52:
.LBB879:
.LBI870:
	.loc 6 364 7 is_stmt 1 view .LVU147
.LBB876:
.LBI871:
	.loc 6 498 7 view .LVU148
.LBB873:
	.loc 6 502 2 discriminator 2 view .LVU149
	.loc 6 503 2 discriminator 2 view .LVU150
.LBE873:
.LBE876:
.LBE879:
	.loc 5 187 17 is_stmt 0 view .LVU151
	testl	%edx, %edx
	cmovns	%edx, %eax
	sarl	$3, %eax
.LBB880:
.LBB877:
.LBB874:
	.loc 6 505 25 view .LVU152
	cltq
	.loc 6 505 24 view .LVU153
	movzbl	(%r9,%rax), %ecx
.LBE874:
.LBE877:
.LBE880:
.LBE882:
.LBE895:
.LBB896:
.LBB892:
.LBB886:
.LBB887:
	.loc 5 11 16 view .LVU154
	movl	%esi, %eax
.LBE887:
.LBE886:
.LBE892:
.LBE896:
.LBB897:
.LBB883:
.LBB881:
.LBB878:
.LBB875:
	.loc 6 505 24 view .LVU155
.LVL53:
	.loc 6 505 24 view .LVU156
.LBE875:
.LBE878:
.LBE881:
.LBE883:
.LBE897:
.LBB898:
.LBI884:
	.loc 5 28 19 is_stmt 1 view .LVU157
.LBB893:
	.loc 5 29 5 view .LVU158
.LBB890:
.LBI886:
	.loc 5 10 19 view .LVU159
.LBB888:
	.loc 5 11 5 view .LVU160
	.loc 5 11 16 is_stmt 0 view .LVU161
	sarl	%eax
	.loc 5 11 7 view .LVU162
	orl	%esi, %eax
.LVL54:
	.loc 5 12 5 is_stmt 1 view .LVU163
.LBE888:
.LBE890:
.LBE893:
.LBE898:
	.loc 5 296 13 is_stmt 0 view .LVU164
	notl	%ecx
.LVL55:
.LBB899:
.LBB894:
.LBB891:
.LBB889:
	.loc 5 12 16 view .LVU165
	movl	%eax, %r12d
	sarl	$2, %r12d
	.loc 5 12 7 view .LVU166
	orl	%r12d, %eax
.LVL56:
	.loc 5 13 5 is_stmt 1 view .LVU167
	.loc 5 13 16 is_stmt 0 view .LVU168
	movl	%eax, %r12d
	sarl	$4, %r12d
	.loc 5 13 7 view .LVU169
	orl	%r12d, %eax
.LVL57:
	.loc 5 14 5 is_stmt 1 view .LVU170
	.loc 5 14 16 is_stmt 0 view .LVU171
	movl	%eax, %r12d
	sarl	$8, %r12d
	.loc 5 14 7 view .LVU172
	orl	%r12d, %eax
.LVL58:
	.loc 5 15 5 is_stmt 1 view .LVU173
	.loc 5 15 16 is_stmt 0 view .LVU174
	movl	%eax, %r12d
	sarl	$16, %r12d
	.loc 5 15 7 view .LVU175
	orl	%r12d, %eax
.LVL59:
	.loc 5 16 5 is_stmt 1 view .LVU176
	.loc 5 16 19 is_stmt 0 view .LVU177
	movl	%eax, %r12d
	sarl	%r12d
	.loc 5 16 23 view .LVU178
	subl	%r12d, %eax
.LVL60:
	.loc 5 16 23 view .LVU179
.LBE889:
.LBE891:
	.loc 5 30 5 is_stmt 1 view .LVU180
	.loc 5 30 9 is_stmt 0 view .LVU181
	movl	%eax, %r13d
	.loc 5 32 21 view .LVU182
	movl	%eax, %r12d
	.loc 5 30 9 view .LVU183
	sarl	%r13d
.LVL61:
	.loc 5 32 5 is_stmt 1 view .LVU184
	.loc 5 32 21 is_stmt 0 view .LVU185
	andl	$-2, %r12d
	addl	%r13d, %r12d
	.loc 5 32 37 view .LVU186
	cmpl	%esi, %r12d
	.loc 5 32 9 view .LVU187
	setg	%r12b
	.loc 5 32 37 view .LVU188
	setg	%r14b
.LVL62:
	.loc 5 33 5 is_stmt 1 view .LVU189
	.loc 5 34 5 view .LVU190
	.loc 5 36 5 view .LVU191
	.loc 5 32 9 is_stmt 0 view .LVU192
	movzbl	%r12b, %r12d
.LVL63:
	.loc 5 34 34 view .LVU193
	addl	%r12d, %r12d
.LVL64:
	.loc 5 34 9 view .LVU194
	subl	%r12d, %r15d
	.loc 5 36 62 view .LVU195
	leal	-1(%rax), %r12d
	.loc 5 36 54 view .LVU196
	movl	%r15d, %eax
.LVL65:
	.loc 5 36 54 view .LVU197
	imull	%r12d, %eax
	.loc 5 36 35 view .LVU198
	testb	%r14b, %r14b
	.loc 5 36 30 view .LVU199
	leal	-1(%rsi,%r13), %r12d
.LVL66:
	.loc 5 36 35 view .LVU200
	cmove	%r8d, %r12d
	.loc 5 36 9 view .LVU201
	addl	%r12d, %eax
.LVL67:
	.loc 5 37 5 is_stmt 1 view .LVU202
	.loc 5 37 5 is_stmt 0 view .LVU203
.LBE894:
.LBE899:
	.loc 5 296 13 view .LVU204
	testb	%bpl, %cl
	je	.L31
	.loc 5 305 29 view .LVU205
	leal	1(%rdx,%rdx), %edx
.LVL68:
	.loc 5 305 29 view .LVU206
.LBE867:
	.loc 5 308 28 is_stmt 1 view .LVU207
	testl	%eax, %eax
	jle	.L19
.LVL69:
.L18:
	.loc 5 290 13 is_stmt 0 view .LVU208
	movl	%eax, %esi
	jmp	.L20
.LVL70:
	.p2align 4,,10
	.p2align 3
.L31:
.LBB900:
	.loc 5 301 43 view .LVU209
	subl	%eax, %esi
.LVL71:
	.loc 5 299 21 view .LVU210
	leal	1(%rbx,%rax), %ebx
.LVL72:
	.loc 5 300 29 view .LVU211
	leal	2(%rdx,%rdx), %edx
.LVL73:
	.loc 5 301 29 view .LVU212
	leal	-1(%rsi), %eax
.LVL74:
	.loc 5 301 29 view .LVU213
.LBE900:
	.loc 5 308 28 is_stmt 1 view .LVU214
	testl	%eax, %eax
	jg	.L18
.L19:
.LVL75:
	.loc 5 308 28 is_stmt 0 view .LVU215
.LBE866:
.LBE865:
	.loc 4 16 9 is_stmt 1 view .LVU216
	cmpl	%ebx, %r11d
	jl	.L32
	.loc 4 13 5 discriminator 2 view .LVU217
	.loc 4 13 26 is_stmt 0 discriminator 2 view .LVU218
	subl	$3, %r11d
.LVL76:
	.loc 4 13 18 is_stmt 1 discriminator 1 view .LVU219
	cmpl	$30, %r11d
	jne	.L22
	.loc 4 18 1 is_stmt 0 view .LVU220
	addq	$8, %rsp
	.cfi_remember_state
	.cfi_def_cfa_offset 56
	popq	%rbx
	.cfi_def_cfa_offset 48
.LVL77:
	.loc 4 18 1 view .LVU221
	popq	%rbp
	.cfi_def_cfa_offset 40
.LVL78:
	.loc 4 18 1 view .LVU222
	popq	%r12
	.cfi_def_cfa_offset 32
	popq	%r13
	.cfi_def_cfa_offset 24
	popq	%r14
	.cfi_def_cfa_offset 16
.LVL79:
	.loc 4 18 1 view .LVU223
	popq	%r15
	.cfi_def_cfa_offset 8
	ret
.LVL80:
.L32:
	.cfi_restore_state
.LBB901:
.LBI901:
	.loc 4 11 6 is_stmt 1 view .LVU224
.LBB902:
	.loc 4 16 9 is_stmt 0 discriminator 1 view .LVU225
	leaq	.LC0(%rip), %rcx
.LVL81:
	.loc 4 16 9 discriminator 1 view .LVU226
	movl	$16, %edx
	leaq	.LC1(%rip), %rsi
	leaq	.LC2(%rip), %rdi
	call	__assert_fail@PLT
.LVL82:
	.loc 4 16 9 discriminator 1 view .LVU227
.LBE902:
.LBE901:
	.cfi_endproc
.LFE2693:
	.size	_Z5task2P14BoundedMinReg2ILi16EE, .-_Z5task2P14BoundedMinReg2ILi16EE
	.section	.rodata.str1.8
	.align 8
.LC3:
	.string	"void task(BoundedMinReg2<16>*)"
	.text
	.p2align 4
	.globl	_Z4taskP14BoundedMinReg2ILi16EE
	.type	_Z4taskP14BoundedMinReg2ILi16EE, @function
_Z4taskP14BoundedMinReg2ILi16EE:
.LVL83:
.LFB2694:
	.loc 4 19 33 is_stmt 1 view -0
	.cfi_startproc
	.loc 4 20 5 view .LVU229
	.loc 4 21 5 view .LVU230
.LBB938:
	.loc 4 21 22 discriminator 1 view .LVU231
.LBE938:
	.loc 4 19 33 is_stmt 0 view .LVU232
	pushq	%r15
	.cfi_def_cfa_offset 16
	.cfi_offset 15, -16
	movq	%rdi, %r9
.LBB1018:
	.loc 4 21 13 view .LVU233
	movl	$99, %r11d
.LBB939:
.LBB940:
	.loc 5 245 13 view .LVU234
	xorl	%r8d, %r8d
.LBE940:
.LBE939:
.LBE1018:
	.loc 4 19 33 view .LVU235
	pushq	%r14
	.cfi_def_cfa_offset 24
	.cfi_offset 14, -24
.LBB1019:
.LBB980:
.LBB978:
.LBB941:
.LBB942:
.LBB943:
	.loc 5 34 9 view .LVU236
	movl	$1, %edi
.LVL84:
	.loc 5 34 9 view .LVU237
.LBE943:
.LBE942:
.LBB949:
.LBB950:
.LBB951:
.LBB952:
	.loc 5 189 36 view .LVU238
	movl	$7, %r10d
.LBE952:
.LBE951:
.LBE950:
.LBE949:
.LBE941:
.LBE978:
.LBE980:
.LBE1019:
	.loc 4 19 33 view .LVU239
	pushq	%r13
	.cfi_def_cfa_offset 32
	.cfi_offset 13, -32
	pushq	%r12
	.cfi_def_cfa_offset 40
	.cfi_offset 12, -40
	pushq	%rbp
	.cfi_def_cfa_offset 48
	.cfi_offset 6, -48
	pushq	%rbx
	.cfi_def_cfa_offset 56
	.cfi_offset 3, -56
	subq	$8, %rsp
	.cfi_def_cfa_offset 64
.LVL85:
	.p2align 4,,10
	.p2align 3
.L47:
.LBB1020:
	.loc 4 21 13 view .LVU240
	movl	%r11d, %ebx
.LBB981:
.LBB979:
	.loc 5 245 13 view .LVU241
	xorl	%esi, %esi
	.loc 5 244 13 view .LVU242
	movl	$128, %edx
	jmp	.L39
.LVL86:
	.p2align 4,,10
	.p2align 3
.L34:
.LBB968:
.LBB965:
	.loc 5 259 29 view .LVU243
	movl	%eax, %edx
.LVL87:
	.loc 5 258 29 view .LVU244
	leal	1(%rsi,%rsi), %esi
.LVL88:
	.loc 5 258 29 view .LVU245
.LBE965:
.LBE968:
	.loc 5 261 28 is_stmt 1 view .LVU246
	testl	%edx, %edx
	jle	.L40
.LVL89:
.L39:
.LBB969:
.LBB966:
.LBI942:
	.loc 5 28 19 view .LVU247
.LBB948:
	.loc 5 29 5 view .LVU248
.LBB944:
.LBI944:
	.loc 5 10 19 view .LVU249
.LBB945:
	.loc 5 11 5 view .LVU250
	.loc 5 11 16 is_stmt 0 view .LVU251
	movl	%edx, %eax
.LBE945:
.LBE944:
	.loc 5 34 9 view .LVU252
	movl	%edi, %ebp
.LBB947:
.LBB946:
	.loc 5 11 16 view .LVU253
	sarl	%eax
	.loc 5 11 7 view .LVU254
	orl	%edx, %eax
.LVL90:
	.loc 5 12 5 is_stmt 1 view .LVU255
	.loc 5 12 16 is_stmt 0 view .LVU256
	movl	%eax, %ecx
	sarl	$2, %ecx
	.loc 5 12 7 view .LVU257
	orl	%ecx, %eax
.LVL91:
	.loc 5 13 5 is_stmt 1 view .LVU258
	.loc 5 13 16 is_stmt 0 view .LVU259
	movl	%eax, %ecx
	sarl	$4, %ecx
	.loc 5 13 7 view .LVU260
	orl	%ecx, %eax
.LVL92:
	.loc 5 14 5 is_stmt 1 view .LVU261
	.loc 5 14 16 is_stmt 0 view .LVU262
	movl	%eax, %ecx
	sarl	$8, %ecx
	.loc 5 14 7 view .LVU263
	orl	%ecx, %eax
.LVL93:
	.loc 5 15 5 is_stmt 1 view .LVU264
	.loc 5 15 16 is_stmt 0 view .LVU265
	movl	%eax, %ecx
	sarl	$16, %ecx
	.loc 5 15 7 view .LVU266
	orl	%ecx, %eax
.LVL94:
	.loc 5 16 5 is_stmt 1 view .LVU267
	.loc 5 16 19 is_stmt 0 view .LVU268
	movl	%eax, %ecx
	sarl	%ecx
	.loc 5 16 23 view .LVU269
	subl	%ecx, %eax
.LVL95:
	.loc 5 16 23 view .LVU270
.LBE946:
.LBE947:
	.loc 5 30 5 is_stmt 1 view .LVU271
	.loc 5 30 9 is_stmt 0 view .LVU272
	movl	%eax, %r13d
	.loc 5 32 21 view .LVU273
	movl	%eax, %ecx
	.loc 5 30 9 view .LVU274
	sarl	%r13d
.LVL96:
	.loc 5 32 5 is_stmt 1 view .LVU275
	.loc 5 32 21 is_stmt 0 view .LVU276
	andl	$-2, %ecx
	addl	%r13d, %ecx
	.loc 5 32 37 view .LVU277
	cmpl	%edx, %ecx
	.loc 5 32 9 view .LVU278
	setg	%cl
	.loc 5 32 37 view .LVU279
	setg	%r12b
.LVL97:
	.loc 5 33 5 is_stmt 1 view .LVU280
	.loc 5 34 5 view .LVU281
	.loc 5 36 5 view .LVU282
	.loc 5 32 9 is_stmt 0 view .LVU283
	movzbl	%cl, %ecx
.LVL98:
	.loc 5 34 34 view .LVU284
	addl	%ecx, %ecx
.LVL99:
	.loc 5 34 9 view .LVU285
	subl	%ecx, %ebp
	.loc 5 36 62 view .LVU286
	leal	-1(%rax), %ecx
	.loc 5 36 54 view .LVU287
	movl	%ebp, %eax
.LVL100:
	.loc 5 36 54 view .LVU288
	imull	%ecx, %eax
	.loc 5 36 35 view .LVU289
	testb	%r12b, %r12b
	.loc 5 36 30 view .LVU290
	leal	-1(%rdx,%r13), %ecx
.LVL101:
	.loc 5 36 35 view .LVU291
	cmove	%r8d, %ecx
	.loc 5 36 9 view .LVU292
	addl	%ecx, %eax
.LVL102:
	.loc 5 37 5 is_stmt 1 view .LVU293
	.loc 5 37 5 is_stmt 0 view .LVU294
.LBE948:
.LBE966:
.LBB967:
	.loc 5 248 13 view .LVU295
	cmpl	%eax, %ebx
	jle	.L34
.LVL103:
.LBB964:
.LBB963:
.LBI951:
	.loc 5 186 14 is_stmt 1 view .LVU296
.LBB962:
.LBB953:
.LBB954:
.LBB955:
	.loc 6 505 24 is_stmt 0 view .LVU297
.LBE955:
.LBE954:
.LBE953:
	.loc 5 188 17 view .LVU298
	movl	%esi, %ecx
	sarl	$31, %ecx
	shrl	$29, %ecx
	leal	(%rsi,%rcx), %ebp
	andl	$7, %ebp
	subl	%ecx, %ebp
	.loc 5 189 36 view .LVU299
	movl	%r10d, %ecx
	subl	%ebp, %ecx
	.loc 5 189 30 view .LVU300
	movl	%edi, %ebp
	sall	%cl, %ebp
.LVL104:
.LBB960:
.LBI953:
	.loc 6 364 7 is_stmt 1 view .LVU301
.LBB958:
.LBI954:
	.loc 6 498 7 view .LVU302
.LBB956:
	.loc 6 502 2 discriminator 2 view .LVU303
	.loc 6 503 2 discriminator 2 view .LVU304
.LBE956:
.LBE958:
.LBE960:
	.loc 5 187 17 is_stmt 0 view .LVU305
	testl	%esi, %esi
	leal	7(%rsi), %ecx
	cmovns	%esi, %ecx
	sarl	$3, %ecx
.LBB961:
.LBB959:
.LBB957:
	.loc 6 505 25 view .LVU306
	movslq	%ecx, %rcx
	.loc 6 505 24 view .LVU307
	movzbl	(%r9,%rcx), %ecx
.LVL105:
	.loc 6 505 24 view .LVU308
.LBE957:
.LBE959:
.LBE961:
.LBE962:
.LBE963:
	.loc 5 250 17 view .LVU309
	notl	%ecx
.LVL106:
	.loc 5 250 17 view .LVU310
	testb	%bpl, %cl
	jne	.L40
	.loc 5 252 47 view .LVU311
	subl	%eax, %edx
.LVL107:
	.loc 5 253 27 view .LVU312
	subl	%eax, %ebx
.LVL108:
	.loc 5 251 33 view .LVU313
	leal	2(%rsi,%rsi), %esi
.LVL109:
	.loc 5 252 33 view .LVU314
	subl	$1, %edx
.LVL110:
	.loc 5 253 23 view .LVU315
	subl	$1, %ebx
.LVL111:
	.loc 5 253 23 view .LVU316
.LBE964:
.LBE967:
.LBE969:
	.loc 5 261 28 is_stmt 1 view .LVU317
	testl	%edx, %edx
	jg	.L39
.LVL112:
.L40:
	.loc 5 263 27 view .LVU318
	testl	%esi, %esi
	jg	.L36
	.loc 5 263 27 is_stmt 0 view .LVU319
	jmp	.L37
.LVL113:
	.p2align 4,,10
	.p2align 3
.L41:
	.loc 5 263 27 is_stmt 1 view .LVU320
	testl	%esi, %esi
	je	.L37
.LVL114:
.L36:
.LBB970:
	.loc 5 264 39 is_stmt 0 view .LVU321
	leal	-1(%rsi), %eax
	movl	%esi, %edx
	.loc 5 264 17 view .LVU322
	movl	%eax, %esi
.LVL115:
	.loc 5 264 17 view .LVU323
	sarl	%esi
.LVL116:
	.loc 5 265 13 view .LVU324
	andl	$1, %edx
.LVL117:
	.loc 5 265 13 view .LVU325
	je	.L41
.LVL118:
.LBB971:
.LBI971:
	.loc 5 195 14 is_stmt 1 view .LVU326
.LBB972:
.LBB973:
.LBI973:
	.loc 6 653 7 view .LVU327
.LBE973:
	.loc 5 198 43 is_stmt 0 view .LVU328
	movl	%esi, %ecx
	movl	%edi, %edx
	.loc 5 196 17 view .LVU329
	sarl	$4, %eax
.LVL119:
	.loc 5 198 43 view .LVU330
	notl	%ecx
.LBB976:
.LBB974:
	.loc 6 655 35 view .LVU331
	cltq
	.loc 6 655 35 view .LVU332
.LBE974:
.LBE976:
	.loc 5 198 43 view .LVU333
	andl	$7, %ecx
	sall	%cl, %edx
	.loc 5 198 21 view .LVU334
	notl	%edx
.LBB977:
.LBB975:
	.loc 6 655 34 view .LVU335
	lock andb	%dl, (%r9,%rax)
.LVL120:
	.loc 6 655 34 view .LVU336
.LBE975:
.LBE977:
.LBE972:
.LBE971:
.LBE970:
	.loc 5 263 27 is_stmt 1 view .LVU337
	testl	%esi, %esi
	jne	.L36
.LVL121:
.L37:
	.loc 5 263 27 is_stmt 0 view .LVU338
.LBE979:
.LBE981:
.LBB982:
.LBB983:
	.loc 5 291 13 view .LVU339
	xorl	%ebx, %ebx
.LVL122:
	.loc 5 290 28 view .LVU340
	movl	$128, %esi
.LVL123:
	.loc 5 290 13 view .LVU341
	xorl	%edx, %edx
.LVL124:
	.p2align 4,,10
	.p2align 3
.L45:
.LBB984:
.LBB985:
.LBI985:
	.loc 5 186 14 is_stmt 1 view .LVU342
.LBB986:
.LBB987:
.LBB988:
.LBB989:
	.loc 6 505 24 is_stmt 0 view .LVU343
.LBE989:
.LBE988:
.LBE987:
	.loc 5 188 17 view .LVU344
	movl	%edx, %ecx
	.loc 5 189 30 view .LVU345
	movl	%edi, %ebp
.LBE986:
.LBE985:
.LBB1001:
.LBB1002:
	.loc 5 34 9 view .LVU346
	movl	%edi, %r15d
.LBE1002:
.LBE1001:
.LBB1012:
.LBB999:
	.loc 5 188 17 view .LVU347
	sarl	$31, %ecx
	shrl	$29, %ecx
	leal	(%rdx,%rcx), %eax
	andl	$7, %eax
	subl	%ecx, %eax
	.loc 5 189 36 view .LVU348
	movl	%r10d, %ecx
	subl	%eax, %ecx
	.loc 5 187 17 view .LVU349
	leal	7(%rdx), %eax
	.loc 5 189 30 view .LVU350
	sall	%cl, %ebp
.LVL125:
.LBB996:
.LBI987:
	.loc 6 364 7 is_stmt 1 view .LVU351
.LBB993:
.LBI988:
	.loc 6 498 7 view .LVU352
.LBB990:
	.loc 6 502 2 discriminator 2 view .LVU353
	.loc 6 503 2 discriminator 2 view .LVU354
.LBE990:
.LBE993:
.LBE996:
	.loc 5 187 17 is_stmt 0 view .LVU355
	testl	%edx, %edx
	cmovns	%edx, %eax
	sarl	$3, %eax
.LBB997:
.LBB994:
.LBB991:
	.loc 6 505 25 view .LVU356
	cltq
	.loc 6 505 24 view .LVU357
	movzbl	(%r9,%rax), %ecx
.LBE991:
.LBE994:
.LBE997:
.LBE999:
.LBE1012:
.LBB1013:
.LBB1009:
.LBB1003:
.LBB1004:
	.loc 5 11 16 view .LVU358
	movl	%esi, %eax
.LBE1004:
.LBE1003:
.LBE1009:
.LBE1013:
.LBB1014:
.LBB1000:
.LBB998:
.LBB995:
.LBB992:
	.loc 6 505 24 view .LVU359
.LVL126:
	.loc 6 505 24 view .LVU360
.LBE992:
.LBE995:
.LBE998:
.LBE1000:
.LBE1014:
.LBB1015:
.LBI1001:
	.loc 5 28 19 is_stmt 1 view .LVU361
.LBB1010:
	.loc 5 29 5 view .LVU362
.LBB1007:
.LBI1003:
	.loc 5 10 19 view .LVU363
.LBB1005:
	.loc 5 11 5 view .LVU364
	.loc 5 11 16 is_stmt 0 view .LVU365
	sarl	%eax
	.loc 5 11 7 view .LVU366
	orl	%esi, %eax
.LVL127:
	.loc 5 12 5 is_stmt 1 view .LVU367
.LBE1005:
.LBE1007:
.LBE1010:
.LBE1015:
	.loc 5 296 13 is_stmt 0 view .LVU368
	notl	%ecx
.LVL128:
.LBB1016:
.LBB1011:
.LBB1008:
.LBB1006:
	.loc 5 12 16 view .LVU369
	movl	%eax, %r12d
	sarl	$2, %r12d
	.loc 5 12 7 view .LVU370
	orl	%r12d, %eax
.LVL129:
	.loc 5 13 5 is_stmt 1 view .LVU371
	.loc 5 13 16 is_stmt 0 view .LVU372
	movl	%eax, %r12d
	sarl	$4, %r12d
	.loc 5 13 7 view .LVU373
	orl	%r12d, %eax
.LVL130:
	.loc 5 14 5 is_stmt 1 view .LVU374
	.loc 5 14 16 is_stmt 0 view .LVU375
	movl	%eax, %r12d
	sarl	$8, %r12d
	.loc 5 14 7 view .LVU376
	orl	%r12d, %eax
.LVL131:
	.loc 5 15 5 is_stmt 1 view .LVU377
	.loc 5 15 16 is_stmt 0 view .LVU378
	movl	%eax, %r12d
	sarl	$16, %r12d
	.loc 5 15 7 view .LVU379
	orl	%r12d, %eax
.LVL132:
	.loc 5 16 5 is_stmt 1 view .LVU380
	.loc 5 16 19 is_stmt 0 view .LVU381
	movl	%eax, %r12d
	sarl	%r12d
	.loc 5 16 23 view .LVU382
	subl	%r12d, %eax
.LVL133:
	.loc 5 16 23 view .LVU383
.LBE1006:
.LBE1008:
	.loc 5 30 5 is_stmt 1 view .LVU384
	.loc 5 30 9 is_stmt 0 view .LVU385
	movl	%eax, %r13d
	.loc 5 32 21 view .LVU386
	movl	%eax, %r12d
	.loc 5 30 9 view .LVU387
	sarl	%r13d
.LVL134:
	.loc 5 32 5 is_stmt 1 view .LVU388
	.loc 5 32 21 is_stmt 0 view .LVU389
	andl	$-2, %r12d
	addl	%r13d, %r12d
	.loc 5 32 37 view .LVU390
	cmpl	%esi, %r12d
	.loc 5 32 9 view .LVU391
	setg	%r12b
	.loc 5 32 37 view .LVU392
	setg	%r14b
.LVL135:
	.loc 5 33 5 is_stmt 1 view .LVU393
	.loc 5 34 5 view .LVU394
	.loc 5 36 5 view .LVU395
	.loc 5 32 9 is_stmt 0 view .LVU396
	movzbl	%r12b, %r12d
.LVL136:
	.loc 5 34 34 view .LVU397
	addl	%r12d, %r12d
.LVL137:
	.loc 5 34 9 view .LVU398
	subl	%r12d, %r15d
	.loc 5 36 62 view .LVU399
	leal	-1(%rax), %r12d
	.loc 5 36 54 view .LVU400
	movl	%r15d, %eax
.LVL138:
	.loc 5 36 54 view .LVU401
	imull	%r12d, %eax
	.loc 5 36 35 view .LVU402
	testb	%r14b, %r14b
	.loc 5 36 30 view .LVU403
	leal	-1(%rsi,%r13), %r12d
.LVL139:
	.loc 5 36 35 view .LVU404
	cmove	%r8d, %r12d
	.loc 5 36 9 view .LVU405
	addl	%r12d, %eax
.LVL140:
	.loc 5 37 5 is_stmt 1 view .LVU406
	.loc 5 37 5 is_stmt 0 view .LVU407
.LBE1011:
.LBE1016:
	.loc 5 296 13 view .LVU408
	testb	%bpl, %cl
	je	.L56
	.loc 5 305 29 view .LVU409
	leal	1(%rdx,%rdx), %edx
.LVL141:
	.loc 5 305 29 view .LVU410
.LBE984:
	.loc 5 308 28 is_stmt 1 view .LVU411
	testl	%eax, %eax
	jle	.L44
.LVL142:
.L43:
	.loc 5 290 13 is_stmt 0 view .LVU412
	movl	%eax, %esi
	jmp	.L45
.LVL143:
	.p2align 4,,10
	.p2align 3
.L56:
.LBB1017:
	.loc 5 301 43 view .LVU413
	subl	%eax, %esi
.LVL144:
	.loc 5 299 21 view .LVU414
	leal	1(%rbx,%rax), %ebx
.LVL145:
	.loc 5 300 29 view .LVU415
	leal	2(%rdx,%rdx), %edx
.LVL146:
	.loc 5 301 29 view .LVU416
	leal	-1(%rsi), %eax
.LVL147:
	.loc 5 301 29 view .LVU417
.LBE1017:
	.loc 5 308 28 is_stmt 1 view .LVU418
	testl	%eax, %eax
	jg	.L43
.L44:
.LVL148:
	.loc 5 308 28 is_stmt 0 view .LVU419
.LBE983:
.LBE982:
	.loc 4 24 9 is_stmt 1 view .LVU420
	cmpl	%ebx, %r11d
	jl	.L57
	.loc 4 21 5 discriminator 2 view .LVU421
	.loc 4 21 30 is_stmt 0 discriminator 2 view .LVU422
	subl	$4, %r11d
.LVL149:
	.loc 4 21 22 is_stmt 1 discriminator 1 view .LVU423
	cmpl	$31, %r11d
	jne	.L47
.LBE1020:
	.loc 4 26 1 is_stmt 0 view .LVU424
	addq	$8, %rsp
	.cfi_remember_state
	.cfi_def_cfa_offset 56
	popq	%rbx
	.cfi_def_cfa_offset 48
.LVL150:
	.loc 4 26 1 view .LVU425
	popq	%rbp
	.cfi_def_cfa_offset 40
.LVL151:
	.loc 4 26 1 view .LVU426
	popq	%r12
	.cfi_def_cfa_offset 32
	popq	%r13
	.cfi_def_cfa_offset 24
	popq	%r14
	.cfi_def_cfa_offset 16
.LVL152:
	.loc 4 26 1 view .LVU427
	popq	%r15
	.cfi_def_cfa_offset 8
	ret
.LVL153:
.L57:
	.cfi_restore_state
.LBB1021:
.LBI1021:
	.loc 4 19 6 is_stmt 1 view .LVU428
.LBB1022:
.LBB1023:
	.loc 4 24 9 is_stmt 0 discriminator 1 view .LVU429
	leaq	.LC3(%rip), %rcx
.LVL154:
	.loc 4 24 9 discriminator 1 view .LVU430
	movl	$24, %edx
	leaq	.LC1(%rip), %rsi
	leaq	.LC2(%rip), %rdi
	call	__assert_fail@PLT
.LVL155:
	.loc 4 24 9 discriminator 1 view .LVU431
.LBE1023:
.LBE1022:
.LBE1021:
	.cfi_endproc
.LFE2694:
	.size	_Z4taskP14BoundedMinReg2ILi16EE, .-_Z4taskP14BoundedMinReg2ILi16EE
	.section	.text.unlikely,"ax",@progbits
.LCOLDB4:
	.text
.LHOTB4:
	.p2align 4
	.section	.text.unlikely
.Ltext_cold0:
	.text
	.globl	_Z12parallelTestv
	.type	_Z12parallelTestv, @function
_Z12parallelTestv:
.LFB2695:
	.loc 4 27 20 is_stmt 1 view -0
	.cfi_startproc
	.cfi_personality 0x9b,DW.ref.__gxx_personality_v0
	.cfi_lsda 0x1b,.LLSDA2695
	pushq	%r13
	.cfi_def_cfa_offset 16
	.cfi_offset 13, -16
	leaq	16+_ZTVNSt6thread11_State_implINS_8_InvokerISt5tupleIJPFvP14BoundedMinReg2ILi16EEES5_EEEEEE(%rip), %rdx
	pushq	%r12
	.cfi_def_cfa_offset 24
	.cfi_offset 12, -24
	movq	%rdx, %xmm0
.LBB1179:
.LBB1180:
.LBB1181:
.LBB1182:
.LBB1183:
.LBB1184:
.LBB1185:
.LBB1186:
.LBB1187:
.LBB1188:
	.loc 6 481 18 is_stmt 0 view .LVU433
	movl	$-1, %edx
.LBE1188:
.LBE1187:
.LBE1186:
.LBE1185:
.LBE1184:
.LBE1183:
.LBE1182:
.LBE1181:
.LBE1180:
.LBE1179:
	.loc 4 27 20 view .LVU434
	pushq	%rbp
	.cfi_def_cfa_offset 32
	.cfi_offset 6, -32
	pushq	%rbx
	.cfi_def_cfa_offset 40
	.cfi_offset 3, -40
	subq	$88, %rsp
	.cfi_def_cfa_offset 128
	.loc 4 27 20 view .LVU435
	movq	%fs:40, %rax
	movq	%rax, 72(%rsp)
	xorl	%eax, %eax
	leaq	48(%rsp), %rax
	leaq	64(%rsp), %rcx
	movq	%rax, %xmm1
	punpcklqdq	%xmm1, %xmm0
	movaps	%xmm0, (%rsp)
	.loc 4 28 5 is_stmt 1 view .LVU436
.LVL156:
.LBB1243:
.LBI1179:
	.loc 5 214 5 view .LVU437
	.loc 5 214 46 discriminator 1 view .LVU438
.LBB1242:
.LBB1200:
.LBI1181:
	.file 7 "/usr/include/c++/13.1.1/bits/stl_algobase.h"
	.loc 7 1152 5 view .LVU439
.LBB1198:
.LBI1182:
	.loc 7 1117 5 view .LVU440
.LBB1196:
.LBI1183:
	.loc 7 976 5 view .LVU441
.LBB1194:
.LBI1184:
	.loc 7 926 5 view .LVU442
.LBB1192:
	.loc 7 930 22 discriminator 1 view .LVU443
	.p2align 4,,10
	.p2align 3
.L59:
.LBB1191:
.LBI1186:
	.loc 6 371 7 view .LVU444
.LBB1190:
.LBI1187:
	.loc 6 473 7 view .LVU445
.LBB1189:
	.loc 6 477 2 discriminator 2 view .LVU446
	.loc 6 478 2 discriminator 2 view .LVU447
	.loc 6 479 2 discriminator 2 view .LVU448
	.loc 6 481 18 is_stmt 0 view .LVU449
	movl	%edx, %edi
	xchgb	(%rax), %dil
.LVL157:
	.loc 6 481 18 view .LVU450
.LBE1189:
.LBE1190:
.LBE1191:
	.loc 7 930 7 is_stmt 1 discriminator 2 view .LVU451
	addq	$1, %rax
.LVL158:
	.loc 7 930 22 discriminator 1 view .LVU452
	cmpq	%rcx, %rax
	jne	.L59
.LBE1192:
.LBE1194:
.LBE1196:
.LBE1198:
.LBE1200:
.LBB1201:
.LBB1202:
	.loc 5 245 13 is_stmt 0 view .LVU453
	xorl	%esi, %esi
	.loc 5 244 13 view .LVU454
	movl	$128, %edx
.LBE1202:
.LBE1201:
.LBB1240:
.LBB1199:
.LBB1197:
.LBB1195:
.LBB1193:
	movl	$100, %edi
.LBE1193:
.LBE1195:
.LBE1197:
.LBE1199:
.LBE1240:
.LBB1241:
.LBB1239:
.LBB1203:
.LBB1204:
.LBB1205:
	.loc 5 36 35 view .LVU455
	xorl	%r9d, %r9d
	.loc 5 34 9 view .LVU456
	movl	$1, %r8d
.LBE1205:
.LBE1204:
.LBB1209:
.LBB1210:
.LBB1211:
.LBB1212:
	.loc 5 189 36 view .LVU457
	movl	$7, %r10d
	jmp	.L65
.LVL159:
	.p2align 4,,10
	.p2align 3
.L60:
	.loc 5 189 36 view .LVU458
.LBE1212:
.LBE1211:
.LBE1210:
	.loc 5 259 29 view .LVU459
	movl	%eax, %edx
.LVL160:
	.loc 5 258 29 view .LVU460
	leal	1(%rsi,%rsi), %esi
.LVL161:
	.loc 5 258 29 view .LVU461
.LBE1209:
.LBE1203:
	.loc 5 261 28 is_stmt 1 view .LVU462
	testl	%edx, %edx
	jle	.L66
.LVL162:
.L65:
.LBB1227:
.LBB1225:
.LBI1204:
	.loc 5 28 19 view .LVU463
.LBB1208:
	.loc 5 29 5 view .LVU464
.LBB1206:
.LBI1206:
	.loc 5 10 19 view .LVU465
.LBB1207:
	.loc 5 11 5 view .LVU466
	.loc 5 11 16 is_stmt 0 view .LVU467
	movl	%edx, %eax
	sarl	%eax
	.loc 5 11 7 view .LVU468
	orl	%edx, %eax
.LVL163:
	.loc 5 12 5 is_stmt 1 view .LVU469
	.loc 5 12 16 is_stmt 0 view .LVU470
	movl	%eax, %ecx
	sarl	$2, %ecx
	.loc 5 12 7 view .LVU471
	orl	%ecx, %eax
.LVL164:
	.loc 5 13 5 is_stmt 1 view .LVU472
	.loc 5 13 16 is_stmt 0 view .LVU473
	movl	%eax, %ecx
	sarl	$4, %ecx
	.loc 5 13 7 view .LVU474
	orl	%ecx, %eax
.LVL165:
	.loc 5 14 5 is_stmt 1 view .LVU475
	.loc 5 14 16 is_stmt 0 view .LVU476
	movl	%eax, %ecx
	sarl	$8, %ecx
	.loc 5 14 7 view .LVU477
	orl	%ecx, %eax
.LVL166:
	.loc 5 15 5 is_stmt 1 view .LVU478
	.loc 5 15 16 is_stmt 0 view .LVU479
	movl	%eax, %ecx
	sarl	$16, %ecx
	.loc 5 15 7 view .LVU480
	orl	%ecx, %eax
.LVL167:
	.loc 5 16 5 is_stmt 1 view .LVU481
	.loc 5 16 19 is_stmt 0 view .LVU482
	movl	%eax, %ecx
	sarl	%ecx
	.loc 5 16 23 view .LVU483
	subl	%ecx, %eax
.LVL168:
	.loc 5 16 23 view .LVU484
.LBE1207:
.LBE1206:
	.loc 5 30 5 is_stmt 1 view .LVU485
	.loc 5 30 9 is_stmt 0 view .LVU486
	movl	%eax, %ebx
	.loc 5 32 21 view .LVU487
	movl	%eax, %ecx
	.loc 5 30 9 view .LVU488
	sarl	%ebx
.LVL169:
	.loc 5 32 5 is_stmt 1 view .LVU489
	.loc 5 32 21 is_stmt 0 view .LVU490
	andl	$-2, %ecx
	addl	%ebx, %ecx
	.loc 5 32 37 view .LVU491
	cmpl	%edx, %ecx
	.loc 5 34 9 view .LVU492
	movl	%r8d, %ecx
	.loc 5 32 9 view .LVU493
	setg	%r11b
	.loc 5 32 37 view .LVU494
	setg	%bpl
.LVL170:
	.loc 5 33 5 is_stmt 1 view .LVU495
	.loc 5 34 5 view .LVU496
	.loc 5 36 5 view .LVU497
	.loc 5 36 62 is_stmt 0 view .LVU498
	subl	$1, %eax
.LVL171:
	.loc 5 32 9 view .LVU499
	movzbl	%r11b, %r11d
.LVL172:
	.loc 5 34 34 view .LVU500
	addl	%r11d, %r11d
.LVL173:
	.loc 5 34 9 view .LVU501
	subl	%r11d, %ecx
	.loc 5 36 54 view .LVU502
	imull	%ecx, %eax
.LVL174:
	.loc 5 36 35 view .LVU503
	testb	%bpl, %bpl
	.loc 5 36 30 view .LVU504
	leal	-1(%rdx,%rbx), %ecx
	.loc 5 36 35 view .LVU505
	cmove	%r9d, %ecx
	.loc 5 36 9 view .LVU506
	addl	%ecx, %eax
.LVL175:
	.loc 5 37 5 is_stmt 1 view .LVU507
	.loc 5 37 5 is_stmt 0 view .LVU508
.LBE1208:
.LBE1225:
.LBB1226:
	.loc 5 248 13 view .LVU509
	cmpl	%eax, %edi
	jle	.L60
.LVL176:
.LBB1224:
.LBB1223:
.LBI1211:
	.loc 5 186 14 is_stmt 1 view .LVU510
.LBB1222:
.LBB1213:
.LBB1214:
.LBB1215:
	.loc 6 505 24 is_stmt 0 view .LVU511
.LBE1215:
.LBE1214:
.LBE1213:
	.loc 5 188 17 view .LVU512
	movl	%esi, %ecx
	sarl	$31, %ecx
	shrl	$29, %ecx
	leal	(%rsi,%rcx), %r11d
	andl	$7, %r11d
	subl	%ecx, %r11d
	.loc 5 189 36 view .LVU513
	movl	%r10d, %ecx
	subl	%r11d, %ecx
	.loc 5 189 30 view .LVU514
	movl	%r8d, %r11d
	sall	%cl, %r11d
.LVL177:
.LBB1220:
.LBI1213:
	.loc 6 364 7 is_stmt 1 view .LVU515
.LBB1218:
.LBI1214:
	.loc 6 498 7 view .LVU516
.LBB1216:
	.loc 6 502 2 discriminator 2 view .LVU517
	.loc 6 503 2 discriminator 2 view .LVU518
.LBE1216:
.LBE1218:
.LBE1220:
	.loc 5 187 17 is_stmt 0 view .LVU519
	testl	%esi, %esi
	leal	7(%rsi), %ecx
	cmovns	%esi, %ecx
	sarl	$3, %ecx
.LBB1221:
.LBB1219:
.LBB1217:
	.loc 6 505 25 view .LVU520
	movslq	%ecx, %rcx
	.loc 6 505 24 view .LVU521
	movzbl	48(%rsp,%rcx), %ecx
.LVL178:
	.loc 6 505 24 view .LVU522
.LBE1217:
.LBE1219:
.LBE1221:
.LBE1222:
.LBE1223:
	.loc 5 250 17 view .LVU523
	notl	%ecx
.LVL179:
	.loc 5 250 17 view .LVU524
	testb	%r11b, %cl
	jne	.L66
	.loc 5 252 47 view .LVU525
	subl	%eax, %edx
.LVL180:
	.loc 5 253 27 view .LVU526
	subl	%eax, %edi
.LVL181:
	.loc 5 251 33 view .LVU527
	leal	2(%rsi,%rsi), %esi
.LVL182:
	.loc 5 252 33 view .LVU528
	subl	$1, %edx
.LVL183:
	.loc 5 253 23 view .LVU529
	subl	$1, %edi
.LVL184:
	.loc 5 253 23 view .LVU530
.LBE1224:
.LBE1226:
.LBE1227:
	.loc 5 261 28 is_stmt 1 view .LVU531
	testl	%edx, %edx
	jg	.L65
.LVL185:
.L66:
	.loc 5 263 27 view .LVU532
.LBB1228:
.LBB1229:
.LBB1230:
	.loc 5 198 43 is_stmt 0 view .LVU533
	movl	$1, %edi
.LVL186:
	.loc 5 198 43 view .LVU534
.LBE1230:
.LBE1229:
.LBE1228:
	.loc 5 263 27 view .LVU535
	testl	%esi, %esi
	jg	.L62
	.loc 5 263 27 view .LVU536
	jmp	.L63
.LVL187:
	.p2align 4,,10
	.p2align 3
.L67:
	.loc 5 263 27 is_stmt 1 view .LVU537
	testl	%esi, %esi
	je	.L63
.LVL188:
.L62:
.LBB1238:
	.loc 5 264 39 is_stmt 0 view .LVU538
	leal	-1(%rsi), %eax
	movl	%esi, %edx
	.loc 5 264 17 view .LVU539
	movl	%eax, %esi
.LVL189:
	.loc 5 264 17 view .LVU540
	sarl	%esi
.LVL190:
	.loc 5 265 13 view .LVU541
	andl	$1, %edx
.LVL191:
	.loc 5 265 13 view .LVU542
	je	.L67
.LVL192:
.LBB1237:
.LBI1229:
	.loc 5 195 14 is_stmt 1 view .LVU543
.LBB1236:
.LBB1231:
.LBI1231:
	.loc 6 653 7 view .LVU544
.LBE1231:
	.loc 5 198 43 is_stmt 0 view .LVU545
	movl	%esi, %ecx
	movl	%edi, %edx
	.loc 5 196 17 view .LVU546
	sarl	$4, %eax
.LVL193:
	.loc 5 198 43 view .LVU547
	notl	%ecx
.LBB1234:
.LBB1232:
	.loc 6 655 35 view .LVU548
	cltq
	.loc 6 655 35 view .LVU549
.LBE1232:
.LBE1234:
	.loc 5 198 43 view .LVU550
	andl	$7, %ecx
	sall	%cl, %edx
	.loc 5 198 21 view .LVU551
	notl	%edx
.LBB1235:
.LBB1233:
	.loc 6 655 34 view .LVU552
	lock andb	%dl, 48(%rsp,%rax)
.LVL194:
	.loc 6 655 34 view .LVU553
.LBE1233:
.LBE1235:
.LBE1236:
.LBE1237:
.LBE1238:
	.loc 5 263 27 is_stmt 1 view .LVU554
	testl	%esi, %esi
	jne	.L62
.LVL195:
.L63:
	.loc 5 263 27 is_stmt 0 view .LVU555
.LBE1239:
.LBE1241:
.LBE1242:
.LBE1243:
	.loc 4 29 5 is_stmt 1 view .LVU556
.LBB1244:
.LBI1244:
	.loc 2 154 7 view .LVU557
.LBB1245:
.LBI1245:
	.loc 2 97 7 view .LVU558
.LBE1245:
.LBB1248:
	.loc 2 164 29 is_stmt 0 view .LVU559
	movl	$24, %edi
	.loc 2 164 17 discriminator 1 view .LVU560
	leaq	40(%rsp), %rbp
.LVL196:
	.loc 2 164 17 discriminator 1 view .LVU561
.LBE1248:
.LBB1303:
.LBB1246:
.LBB1247:
	.loc 2 97 23 view .LVU562
	movq	$0, 24(%rsp)
.LVL197:
	.loc 2 97 23 view .LVU563
.LBE1247:
.LBE1246:
.LBE1303:
.LBB1304:
	.loc 2 164 17 discriminator 1 view .LVU564
	leaq	24(%rsp), %rbx
.LVL198:
.LEHB0:
	.loc 2 164 29 view .LVU565
	call	_Znwm@PLT
.LVL199:
.LEHE0:
.LBB1249:
.LBI1249:
	.loc 2 239 4 is_stmt 1 view .LVU566
.LBB1250:
.LBB1251:
.LBI1251:
	.loc 2 225 12 view .LVU567
	.loc 2 225 12 is_stmt 0 view .LVU568
.LBE1251:
.LBB1252:
.LBI1252:
	.loc 2 276 4 is_stmt 1 view .LVU569
.LBB1253:
.LBI1253:
	.file 8 "/usr/include/c++/13.1.1/tuple"
	.loc 8 1338 2 view .LVU570
.LBB1254:
.LBI1254:
	.loc 8 291 2 view .LVU571
.LBB1255:
.LBI1255:
	.loc 8 513 2 view .LVU572
.LBB1256:
.LBI1256:
	.loc 8 200 19 view .LVU573
.LBE1256:
.LBE1255:
.LBB1257:
.LBB1258:
	.loc 8 194 9 is_stmt 0 view .LVU574
	leaq	_Z4taskP14BoundedMinReg2ILi16EE(%rip), %rdi
.LBE1258:
.LBE1257:
.LBE1254:
.LBE1253:
.LBE1252:
	.loc 2 240 44 discriminator 1 view .LVU575
	movdqa	(%rsp), %xmm2
.LBE1250:
.LBE1249:
	.loc 2 164 17 discriminator 1 view .LVU576
	movq	%rbp, %rsi
.LBB1270:
.LBB1268:
.LBB1266:
.LBB1264:
.LBB1262:
.LBB1260:
.LBB1259:
	.loc 8 194 9 view .LVU577
	movq	%rdi, 16(%rax)
.LBE1259:
.LBE1260:
.LBE1262:
.LBE1264:
.LBE1266:
.LBE1268:
.LBE1270:
	.loc 2 164 17 discriminator 1 view .LVU578
	leaq	_ZNSt6thread24_M_thread_deps_never_runEv(%rip), %r12
	movq	%rbx, %rdi
.LBB1271:
.LBB1269:
	.loc 2 240 44 discriminator 1 view .LVU579
	movups	%xmm2, (%rax)
.LVL200:
.LBB1267:
.LBB1265:
.LBB1263:
.LBB1261:
.LBI1257:
	.loc 8 193 17 is_stmt 1 view .LVU580
	.loc 8 193 17 is_stmt 0 view .LVU581
.LBE1261:
.LBE1263:
.LBE1265:
.LBE1267:
.LBE1269:
.LBE1271:
.LBB1272:
.LBI1272:
	.file 9 "/usr/include/c++/13.1.1/bits/unique_ptr.h"
	.loc 9 317 2 is_stmt 1 view .LVU582
.LBB1273:
.LBI1273:
	.loc 9 241 40 view .LVU583
.LBB1274:
.LBI1274:
	.loc 9 176 7 view .LVU584
.LBB1275:
.LBB1276:
.LBI1276:
	.loc 8 1310 2 view .LVU585
.LBB1277:
.LBI1277:
	.loc 8 280 17 view .LVU586
.LBB1278:
.LBI1278:
	.loc 8 503 7 view .LVU587
.LBB1279:
.LBI1279:
	.loc 8 81 17 view .LVU588
	.loc 8 81 17 is_stmt 0 view .LVU589
.LBE1279:
.LBE1278:
.LBB1280:
.LBI1280:
	.loc 8 190 17 is_stmt 1 view .LVU590
	.loc 8 190 17 is_stmt 0 view .LVU591
.LBE1280:
.LBE1277:
.LBE1276:
.LBB1281:
.LBI1281:
	.loc 9 197 18 is_stmt 1 view .LVU592
	.loc 9 197 18 is_stmt 0 view .LVU593
.LBE1281:
.LBE1275:
.LBE1274:
.LBE1273:
.LBE1272:
	.loc 2 164 17 discriminator 1 view .LVU594
	movq	%r12, %rdx
.LBB1285:
.LBB1284:
.LBB1283:
.LBB1282:
	.loc 9 176 56 discriminator 2 view .LVU595
	movq	%rax, 40(%rsp)
.LVL201:
.LEHB1:
	.loc 9 176 56 discriminator 2 view .LVU596
.LBE1282:
.LBE1283:
.LBE1284:
.LBE1285:
	.loc 2 164 17 discriminator 1 view .LVU597
	call	_ZNSt6thread15_M_start_threadESt10unique_ptrINS_6_StateESt14default_deleteIS1_EEPFvvE@PLT
.LVL202:
.LEHE1:
.LBB1286:
.LBI1286:
	.loc 9 398 7 is_stmt 1 view .LVU598
.LBB1287:
.LBB1288:
.LBB1289:
.LBI1289:
	.loc 9 197 18 view .LVU599
	.loc 9 197 18 is_stmt 0 view .LVU600
.LBE1289:
	.loc 9 403 12 view .LVU601
	movq	40(%rsp), %rdi
	.loc 9 403 2 view .LVU602
	testq	%rdi, %rdi
	je	.L68
.LVL203:
.LBB1290:
.LBI1290:
	.loc 9 475 7 is_stmt 1 view .LVU603
	.loc 9 475 7 is_stmt 0 view .LVU604
.LBE1290:
.LBB1291:
.LBI1291:
	.loc 9 93 7 is_stmt 1 view .LVU605
.LBB1292:
	.loc 9 99 2 is_stmt 0 discriminator 1 view .LVU606
	movq	(%rdi), %rax
	call	*8(%rax)
.LVL204:
.L68:
	.loc 9 99 2 discriminator 1 view .LVU607
.LBE1292:
.LBE1291:
.LBE1288:
.LBE1287:
.LBE1286:
.LBE1304:
.LBE1244:
.LBB1307:
.LBI1307:
	.loc 2 154 7 is_stmt 1 view .LVU608
.LBB1308:
.LBI1308:
	.loc 2 97 7 view .LVU609
.LBB1309:
.LBB1310:
	.loc 2 97 23 is_stmt 0 view .LVU610
	movq	$0, 32(%rsp)
.LVL205:
	.loc 2 97 23 view .LVU611
.LBE1310:
.LBE1309:
.LBE1308:
.LBB1311:
	.loc 2 164 29 view .LVU612
	movl	$24, %edi
.LEHB2:
	call	_Znwm@PLT
.LVL206:
.LEHE2:
.LBB1312:
.LBI1312:
	.loc 2 239 4 is_stmt 1 view .LVU613
.LBB1313:
.LBB1314:
.LBI1314:
	.loc 2 225 12 view .LVU614
	.loc 2 225 12 is_stmt 0 view .LVU615
.LBE1314:
.LBB1315:
.LBI1315:
	.loc 2 276 4 is_stmt 1 view .LVU616
.LBB1316:
.LBI1316:
	.loc 8 1338 2 view .LVU617
.LBB1317:
.LBI1317:
	.loc 8 291 2 view .LVU618
.LBB1318:
.LBI1318:
	.loc 8 513 2 view .LVU619
.LBB1319:
.LBI1319:
	.loc 8 200 19 view .LVU620
.LBE1319:
.LBE1318:
.LBE1317:
.LBE1316:
.LBE1315:
	.loc 2 240 44 is_stmt 0 discriminator 1 view .LVU621
	movdqa	(%rsp), %xmm3
.LBE1313:
.LBE1312:
	.loc 2 164 17 discriminator 1 view .LVU622
	leaq	32(%rsp), %r13
.LVL207:
	.loc 2 164 17 discriminator 1 view .LVU623
	movq	%r12, %rdx
	movq	%rbp, %rsi
.LBB1337:
.LBB1334:
.LBB1331:
.LBB1328:
.LBB1325:
.LBB1320:
.LBB1321:
	.loc 8 194 9 view .LVU624
	leaq	_Z5task2P14BoundedMinReg2ILi16EE(%rip), %rdi
.LBE1321:
.LBE1320:
.LBE1325:
.LBE1328:
.LBE1331:
.LBE1334:
.LBE1337:
.LBB1338:
.LBB1339:
.LBB1340:
.LBB1341:
	.loc 9 176 56 discriminator 2 view .LVU625
	movq	%rax, 40(%rsp)
.LBE1341:
.LBE1340:
.LBE1339:
.LBE1338:
.LBB1351:
.LBB1335:
.LBB1332:
.LBB1329:
.LBB1326:
.LBB1323:
.LBB1322:
	.loc 8 194 9 view .LVU626
	movq	%rdi, 16(%rax)
.LBE1322:
.LBE1323:
.LBE1326:
.LBE1329:
.LBE1332:
.LBE1335:
.LBE1351:
	.loc 2 164 17 discriminator 1 view .LVU627
	movq	%r13, %rdi
.LBB1352:
.LBB1336:
	.loc 2 240 44 discriminator 1 view .LVU628
	movups	%xmm3, (%rax)
.LVL208:
.LBB1333:
.LBB1330:
.LBB1327:
.LBB1324:
.LBI1320:
	.loc 8 193 17 is_stmt 1 view .LVU629
	.loc 8 193 17 is_stmt 0 view .LVU630
.LBE1324:
.LBE1327:
.LBE1330:
.LBE1333:
.LBE1336:
.LBE1352:
.LBB1353:
.LBI1338:
	.loc 9 317 2 is_stmt 1 view .LVU631
.LBB1350:
.LBI1339:
	.loc 9 241 40 view .LVU632
.LBB1349:
.LBI1340:
	.loc 9 176 7 view .LVU633
.LBB1348:
.LBB1342:
.LBI1342:
	.loc 8 1310 2 view .LVU634
.LBB1343:
.LBI1343:
	.loc 8 280 17 view .LVU635
.LBB1344:
.LBI1344:
	.loc 8 503 7 view .LVU636
.LBB1345:
.LBI1345:
	.loc 8 81 17 view .LVU637
	.loc 8 81 17 is_stmt 0 view .LVU638
.LBE1345:
.LBE1344:
.LBB1346:
.LBI1346:
	.loc 8 190 17 is_stmt 1 view .LVU639
	.loc 8 190 17 is_stmt 0 view .LVU640
.LBE1346:
.LBE1343:
.LBE1342:
.LBB1347:
.LBI1347:
	.loc 9 197 18 is_stmt 1 view .LVU641
.LEHB3:
	.loc 9 197 18 is_stmt 0 view .LVU642
.LBE1347:
.LBE1348:
.LBE1349:
.LBE1350:
.LBE1353:
	.loc 2 164 17 discriminator 1 view .LVU643
	call	_ZNSt6thread15_M_start_threadESt10unique_ptrINS_6_StateESt14default_deleteIS1_EEPFvvE@PLT
.LVL209:
.LEHE3:
.LBB1354:
.LBI1354:
	.loc 9 398 7 is_stmt 1 view .LVU644
.LBB1355:
.LBB1356:
.LBB1357:
.LBI1357:
	.loc 9 197 18 view .LVU645
	.loc 9 197 18 is_stmt 0 view .LVU646
.LBE1357:
	.loc 9 403 12 view .LVU647
	movq	40(%rsp), %rdi
	.loc 9 403 2 view .LVU648
	testq	%rdi, %rdi
	je	.L73
.LVL210:
.LBB1358:
.LBI1358:
	.loc 9 475 7 is_stmt 1 view .LVU649
	.loc 9 475 7 is_stmt 0 view .LVU650
.LBE1358:
.LBB1359:
.LBI1359:
	.loc 9 93 7 is_stmt 1 view .LVU651
.LBB1360:
	.loc 9 99 2 is_stmt 0 discriminator 1 view .LVU652
	movq	(%rdi), %rax
	call	*8(%rax)
.LVL211:
.L73:
	.loc 9 99 2 discriminator 1 view .LVU653
.LBE1360:
.LBE1359:
.LBE1356:
.LBE1355:
.LBE1354:
.LBE1311:
.LBE1307:
	.loc 4 31 5 is_stmt 1 view .LVU654
	.loc 4 31 12 is_stmt 0 view .LVU655
	movq	%rbx, %rdi
.LEHB4:
	call	_ZNSt6thread4joinEv@PLT
.LVL212:
	.loc 4 32 5 is_stmt 1 view .LVU656
	.loc 4 32 12 is_stmt 0 view .LVU657
	movq	%r13, %rdi
	call	_ZNSt6thread4joinEv@PLT
.LVL213:
.LEHE4:
.LBB1377:
.LBI1377:
	.loc 2 170 5 is_stmt 1 view .LVU658
.LBB1378:
	.loc 2 172 7 view .LVU659
.LBB1379:
.LBI1379:
	.loc 2 196 5 view .LVU660
.LBB1380:
	.loc 2 197 7 view .LVU661
.LBB1381:
.LBI1381:
	.loc 2 97 7 view .LVU662
	.loc 2 97 7 is_stmt 0 view .LVU663
.LBE1381:
.LBB1382:
.LBI1382:
	.loc 2 324 3 is_stmt 1 view .LVU664
	.loc 2 330 5 view .LVU665
	.loc 2 330 5 is_stmt 0 view .LVU666
.LBE1382:
.LBE1380:
.LBE1379:
	.loc 2 172 7 discriminator 1 view .LVU667
	cmpq	$0, 32(%rsp)
	jne	.L79
.LVL214:
	.loc 2 172 7 discriminator 1 view .LVU668
.LBE1378:
.LBE1377:
.LBB1386:
.LBI1386:
	.loc 2 170 5 is_stmt 1 view .LVU669
.LBB1387:
	.loc 2 172 7 view .LVU670
.LBB1388:
.LBI1388:
	.loc 2 196 5 view .LVU671
.LBB1389:
	.loc 2 197 7 view .LVU672
.LBB1390:
.LBI1390:
	.loc 2 97 7 view .LVU673
	.loc 2 97 7 is_stmt 0 view .LVU674
.LBE1390:
.LBB1391:
.LBI1391:
	.loc 2 324 3 is_stmt 1 view .LVU675
	.loc 2 330 5 view .LVU676
	.loc 2 330 5 is_stmt 0 view .LVU677
.LBE1391:
.LBE1389:
.LBE1388:
	.loc 2 172 7 discriminator 1 view .LVU678
	cmpq	$0, 24(%rsp)
	jne	.L79
.LBE1387:
.LBE1386:
	.loc 4 34 1 view .LVU679
	movq	72(%rsp), %rax
	subq	%fs:40, %rax
	jne	.L110
	addq	$88, %rsp
	.cfi_remember_state
	.cfi_def_cfa_offset 40
	popq	%rbx
	.cfi_def_cfa_offset 32
.LVL215:
	.loc 4 34 1 view .LVU680
	popq	%rbp
	.cfi_def_cfa_offset 24
.LVL216:
	.loc 4 34 1 view .LVU681
	popq	%r12
	.cfi_def_cfa_offset 16
	popq	%r13
	.cfi_def_cfa_offset 8
	ret
.LVL217:
.L79:
	.cfi_restore_state
.LBB1392:
.LBB1385:
	.loc 2 173 2 is_stmt 1 view .LVU682
.LBB1383:
.LBI1383:
	.file 10 "/usr/include/c++/13.1.1/x86_64-pc-linux-gnu/bits/c++config.h"
	.loc 10 319 15 view .LVU683
.LBB1384:
	.loc 10 321 5 view .LVU684
	.loc 10 322 5 view .LVU685
	.loc 10 322 14 is_stmt 0 view .LVU686
	call	_ZSt9terminatev@PLT
.LVL218:
.L110:
	.loc 10 322 14 view .LVU687
.LBE1384:
.LBE1383:
.LBE1385:
.LBE1392:
	.loc 4 34 1 view .LVU688
	call	__stack_chk_fail@PLT
.LVL219:
.L86:
.LBB1393:
.LBB1305:
.LBB1293:
.LBB1294:
.LBB1295:
	.loc 9 403 12 view .LVU689
	movq	%rax, %rbx
.LVL220:
	.loc 9 403 12 view .LVU690
	jmp	.L70
.LVL221:
.L83:
	.loc 9 403 12 view .LVU691
.LBE1295:
.LBE1294:
.LBE1293:
.LBE1305:
.LBE1393:
.LBB1394:
.LBB1395:
	.loc 2 172 7 discriminator 1 view .LVU692
	movq	%rax, %rdi
	jmp	.L77
.LVL222:
.L85:
	.loc 2 172 7 discriminator 1 view .LVU693
.LBE1395:
.LBE1394:
.LBB1401:
.LBB1374:
.LBB1361:
.LBB1362:
.LBB1363:
	.loc 9 403 12 view .LVU694
	movq	%rax, %rbx
	jmp	.L75
.LVL223:
.L84:
	.loc 9 403 12 view .LVU695
.LBE1363:
.LBE1362:
.LBE1361:
.LBE1374:
.LBE1401:
.LBB1402:
.LBB1403:
	.loc 2 172 7 discriminator 1 view .LVU696
	movq	%rax, %rdi
	jmp	.L80
.LVL224:
	.loc 2 172 7 discriminator 1 view .LVU697
.LBE1403:
.LBE1402:
	.globl	__gxx_personality_v0
	.section	.gcc_except_table,"a",@progbits
.LLSDA2695:
	.byte	0xff
	.byte	0xff
	.byte	0x1
	.uleb128 .LLSDACSE2695-.LLSDACSB2695
.LLSDACSB2695:
	.uleb128 .LEHB0-.LFB2695
	.uleb128 .LEHE0-.LEHB0
	.uleb128 0
	.uleb128 0
	.uleb128 .LEHB1-.LFB2695
	.uleb128 .LEHE1-.LEHB1
	.uleb128 .L86-.LFB2695
	.uleb128 0
	.uleb128 .LEHB2-.LFB2695
	.uleb128 .LEHE2-.LEHB2
	.uleb128 .L83-.LFB2695
	.uleb128 0
	.uleb128 .LEHB3-.LFB2695
	.uleb128 .LEHE3-.LEHB3
	.uleb128 .L85-.LFB2695
	.uleb128 0
	.uleb128 .LEHB4-.LFB2695
	.uleb128 .LEHE4-.LEHB4
	.uleb128 .L84-.LFB2695
	.uleb128 0
.LLSDACSE2695:
	.text
	.cfi_endproc
	.section	.text.unlikely
	.cfi_startproc
	.cfi_personality 0x9b,DW.ref.__gxx_personality_v0
	.cfi_lsda 0x1b,.LLSDAC2695
	.type	_Z12parallelTestv.cold, @function
_Z12parallelTestv.cold:
.LFSB2695:
.LBB1410:
.LBB1408:
.L70:
	.cfi_def_cfa_offset 128
	.cfi_offset 3, -40
	.cfi_offset 6, -32
	.cfi_offset 12, -24
	.cfi_offset 13, -16
.LVL225:
	.loc 2 172 7 discriminator 1 view -0
.LBE1408:
.LBE1410:
.LBB1411:
.LBB1306:
.LBB1302:
.LBI1293:
	.loc 9 398 7 is_stmt 1 view .LVU699
.LBB1301:
.LBB1300:
.LBB1296:
.LBI1296:
	.loc 9 197 18 view .LVU700
	.loc 9 197 18 is_stmt 0 view .LVU701
.LBE1296:
	.loc 9 403 12 view .LVU702
	movq	40(%rsp), %rdi
	.loc 9 403 2 view .LVU703
	testq	%rdi, %rdi
	je	.L71
.LVL226:
.LBB1297:
.LBI1297:
	.loc 9 475 7 is_stmt 1 view .LVU704
	.loc 9 475 7 is_stmt 0 view .LVU705
.LBE1297:
.LBB1298:
.LBI1298:
	.loc 9 93 7 is_stmt 1 view .LVU706
.LBB1299:
	.loc 9 99 2 is_stmt 0 discriminator 1 view .LVU707
	movq	(%rdi), %rax
	call	*8(%rax)
.LVL227:
.L71:
	.loc 9 99 2 discriminator 1 view .LVU708
	movq	72(%rsp), %rax
	subq	%fs:40, %rax
	jne	.L111
	movq	%rbx, %rdi
.LEHB5:
	call	_Unwind_Resume@PLT
.LVL228:
.L75:
	.loc 9 99 2 discriminator 1 view .LVU709
.LBE1299:
.LBE1298:
.LBE1300:
.LBE1301:
.LBE1302:
.LBE1306:
.LBE1411:
.LBB1412:
.LBB1375:
.LBB1372:
.LBI1361:
	.loc 9 398 7 is_stmt 1 view .LVU710
.LBB1370:
.LBB1368:
.LBB1364:
.LBI1364:
	.loc 9 197 18 view .LVU711
	.loc 9 197 18 is_stmt 0 view .LVU712
.LBE1364:
	.loc 9 403 12 view .LVU713
	movq	40(%rsp), %rdi
	.loc 9 403 2 view .LVU714
	testq	%rdi, %rdi
	jne	.L112
.L76:
.LVL229:
	.loc 9 403 2 view .LVU715
	movq	%rbx, %rdi
.LVL230:
.L77:
	.loc 9 403 2 view .LVU716
.LBE1368:
.LBE1370:
.LBE1372:
.LBE1375:
.LBE1412:
.LBB1413:
.LBI1394:
	.loc 2 170 5 is_stmt 1 view .LVU717
.LBB1400:
	.loc 2 172 7 view .LVU718
.LBB1396:
.LBI1396:
	.loc 2 196 5 view .LVU719
.LBB1397:
	.loc 2 197 7 view .LVU720
.LBB1398:
.LBI1398:
	.loc 2 97 7 view .LVU721
	.loc 2 97 7 is_stmt 0 view .LVU722
.LBE1398:
.LBB1399:
.LBI1399:
	.loc 2 324 3 is_stmt 1 view .LVU723
	.loc 2 330 5 view .LVU724
	.loc 2 330 5 is_stmt 0 view .LVU725
.LBE1399:
.LBE1397:
.LBE1396:
	.loc 2 172 7 discriminator 1 view .LVU726
	cmpq	$0, 24(%rsp)
	jne	.L79
.LVL231:
	.loc 2 172 7 discriminator 1 view .LVU727
	movq	72(%rsp), %rax
	subq	%fs:40, %rax
	jne	.L113
	call	_Unwind_Resume@PLT
.LVL232:
.LEHE5:
.L80:
	.loc 2 172 7 discriminator 1 view .LVU728
.LBE1400:
.LBE1413:
.LBB1414:
.LBI1402:
	.loc 2 170 5 is_stmt 1 view .LVU729
.LBB1409:
	.loc 2 172 7 view .LVU730
.LBB1404:
.LBI1404:
	.loc 2 196 5 view .LVU731
.LBB1405:
	.loc 2 197 7 view .LVU732
.LBB1406:
.LBI1406:
	.loc 2 97 7 view .LVU733
	.loc 2 97 7 is_stmt 0 view .LVU734
.LBE1406:
.LBB1407:
.LBI1407:
	.loc 2 324 3 is_stmt 1 view .LVU735
	.loc 2 330 5 view .LVU736
	.loc 2 330 5 is_stmt 0 view .LVU737
.LBE1407:
.LBE1405:
.LBE1404:
	.loc 2 172 7 discriminator 1 view .LVU738
	cmpq	$0, 32(%rsp)
	je	.L77
	jmp	.L79
.LVL233:
.L112:
	.loc 2 172 7 discriminator 1 view .LVU739
.LBE1409:
.LBE1414:
.LBB1415:
.LBB1376:
.LBB1373:
.LBB1371:
.LBB1369:
.LBB1365:
.LBI1365:
	.loc 9 475 7 is_stmt 1 view .LVU740
	.loc 9 475 7 is_stmt 0 view .LVU741
.LBE1365:
.LBB1366:
.LBI1366:
	.loc 9 93 7 is_stmt 1 view .LVU742
.LBB1367:
	.loc 9 99 2 is_stmt 0 discriminator 1 view .LVU743
	movq	(%rdi), %rax
	call	*8(%rax)
.LVL234:
	.loc 9 100 7 view .LVU744
	jmp	.L76
.LVL235:
.L111:
	.loc 9 100 7 view .LVU745
	call	__stack_chk_fail@PLT
.LVL236:
.L113:
	.loc 9 100 7 view .LVU746
	call	__stack_chk_fail@PLT
.LVL237:
.LBE1367:
.LBE1366:
.LBE1369:
.LBE1371:
.LBE1373:
.LBE1376:
.LBE1415:
	.cfi_endproc
.LFE2695:
	.section	.gcc_except_table
.LLSDAC2695:
	.byte	0xff
	.byte	0xff
	.byte	0x1
	.uleb128 .LLSDACSEC2695-.LLSDACSBC2695
.LLSDACSBC2695:
	.uleb128 .LEHB5-.LCOLDB4
	.uleb128 .LEHE5-.LEHB5
	.uleb128 0
	.uleb128 0
.LLSDACSEC2695:
	.section	.text.unlikely
	.text
	.size	_Z12parallelTestv, .-_Z12parallelTestv
	.section	.text.unlikely
	.size	_Z12parallelTestv.cold, .-_Z12parallelTestv.cold
.LCOLDE4:
	.text
.LHOTE4:
	.section	.rodata.str1.1
.LC5:
	.string	"Min reg initial value: "
.LC6:
	.string	"Broken!"
	.text
	.p2align 4
	.globl	_Z8regTest2v
	.type	_Z8regTest2v, @function
_Z8regTest2v:
.LFB2696:
	.loc 4 37 16 is_stmt 1 view -0
	.cfi_startproc
	pushq	%r15
	.cfi_def_cfa_offset 16
	.cfi_offset 15, -16
.LBB1631:
.LBB1632:
.LBB1633:
.LBB1634:
.LBB1635:
.LBB1636:
.LBB1637:
.LBB1638:
.LBB1639:
.LBB1640:
	.loc 6 481 18 is_stmt 0 view .LVU748
	movl	$-1, %edx
.LBE1640:
.LBE1639:
.LBE1638:
.LBE1637:
.LBE1636:
.LBE1635:
.LBE1634:
.LBE1633:
.LBE1632:
.LBE1631:
	.loc 4 37 16 view .LVU749
	pushq	%r14
	.cfi_def_cfa_offset 24
	.cfi_offset 14, -24
	pushq	%r13
	.cfi_def_cfa_offset 32
	.cfi_offset 13, -32
	pushq	%r12
	.cfi_def_cfa_offset 40
	.cfi_offset 12, -40
	pushq	%rbp
	.cfi_def_cfa_offset 48
	.cfi_offset 6, -48
	pushq	%rbx
	.cfi_def_cfa_offset 56
	.cfi_offset 3, -56
	subq	$104, %rsp
	.cfi_def_cfa_offset 160
	.loc 4 37 16 view .LVU750
	movq	%fs:40, %rax
	movq	%rax, 88(%rsp)
	xorl	%eax, %eax
	.loc 4 38 5 is_stmt 1 view .LVU751
.LVL238:
.LBB1700:
.LBI1631:
	.loc 5 214 5 view .LVU752
	.loc 5 214 46 discriminator 1 view .LVU753
.LBB1699:
.LBB1656:
.LBI1633:
	.loc 7 1152 5 view .LVU754
.LBB1653:
.LBI1634:
	.loc 7 1117 5 view .LVU755
.LBB1650:
.LBI1635:
	.loc 7 976 5 view .LVU756
.LBB1647:
.LBI1636:
	.loc 7 926 5 view .LVU757
.LBB1644:
	.loc 7 930 22 discriminator 1 view .LVU758
	leaq	80(%rsp), %rcx
.LVL239:
	.loc 7 930 22 is_stmt 0 discriminator 1 view .LVU759
.LBE1644:
.LBE1647:
.LBE1650:
.LBE1653:
.LBE1656:
	.loc 5 214 5 view .LVU760
	leaq	16(%rsp), %rax
.LVL240:
.L115:
.LBB1657:
.LBB1654:
.LBB1651:
.LBB1648:
.LBB1645:
.LBB1643:
.LBI1638:
	.loc 6 371 7 is_stmt 1 view .LVU761
.LBB1642:
.LBI1639:
	.loc 6 473 7 view .LVU762
.LBB1641:
	.loc 6 477 2 discriminator 2 view .LVU763
	.loc 6 478 2 discriminator 2 view .LVU764
	.loc 6 479 2 discriminator 2 view .LVU765
	.loc 6 481 18 is_stmt 0 view .LVU766
	movl	%edx, %ebx
	xchgb	(%rax), %bl
.LVL241:
	.loc 6 481 18 view .LVU767
.LBE1641:
.LBE1642:
.LBE1643:
	.loc 7 930 7 is_stmt 1 discriminator 2 view .LVU768
	addq	$1, %rax
.LVL242:
	.loc 7 930 22 discriminator 1 view .LVU769
	cmpq	%rcx, %rax
	jne	.L115
.LBE1645:
.LBE1648:
.LBE1651:
.LBE1654:
.LBE1657:
.LBB1658:
.LBB1659:
	.loc 5 245 13 is_stmt 0 view .LVU770
	xorl	%esi, %esi
	.loc 5 244 13 view .LVU771
	movl	$512, %edx
.LBE1659:
.LBE1658:
.LBB1697:
.LBB1655:
.LBB1652:
.LBB1649:
.LBB1646:
	movl	$500, %edi
.LBE1646:
.LBE1649:
.LBE1652:
.LBE1655:
.LBE1697:
.LBB1698:
.LBB1696:
.LBB1660:
.LBB1661:
.LBB1662:
	.loc 5 36 35 view .LVU772
	xorl	%r9d, %r9d
	.loc 5 34 9 view .LVU773
	movl	$1, %r8d
.LBE1662:
.LBE1661:
.LBB1666:
.LBB1667:
.LBB1668:
.LBB1669:
	.loc 5 189 36 view .LVU774
	movl	$7, %r10d
	jmp	.L121
.LVL243:
.L116:
	.loc 5 189 36 view .LVU775
.LBE1669:
.LBE1668:
.LBE1667:
	.loc 5 259 29 view .LVU776
	movl	%eax, %edx
.LVL244:
	.loc 5 258 29 view .LVU777
	leal	1(%rsi,%rsi), %esi
.LVL245:
	.loc 5 258 29 view .LVU778
.LBE1666:
.LBE1660:
	.loc 5 261 28 is_stmt 1 view .LVU779
	testl	%edx, %edx
	jle	.L122
.LVL246:
.L121:
.LBB1684:
.LBB1682:
.LBI1661:
	.loc 5 28 19 view .LVU780
.LBB1665:
	.loc 5 29 5 view .LVU781
.LBB1663:
.LBI1663:
	.loc 5 10 19 view .LVU782
.LBB1664:
	.loc 5 11 5 view .LVU783
	.loc 5 11 16 is_stmt 0 view .LVU784
	movl	%edx, %eax
	sarl	%eax
	.loc 5 11 7 view .LVU785
	orl	%edx, %eax
.LVL247:
	.loc 5 12 5 is_stmt 1 view .LVU786
	.loc 5 12 16 is_stmt 0 view .LVU787
	movl	%eax, %ecx
	sarl	$2, %ecx
	.loc 5 12 7 view .LVU788
	orl	%ecx, %eax
.LVL248:
	.loc 5 13 5 is_stmt 1 view .LVU789
	.loc 5 13 16 is_stmt 0 view .LVU790
	movl	%eax, %ecx
	sarl	$4, %ecx
	.loc 5 13 7 view .LVU791
	orl	%ecx, %eax
.LVL249:
	.loc 5 14 5 is_stmt 1 view .LVU792
	.loc 5 14 16 is_stmt 0 view .LVU793
	movl	%eax, %ecx
	sarl	$8, %ecx
	.loc 5 14 7 view .LVU794
	orl	%ecx, %eax
.LVL250:
	.loc 5 15 5 is_stmt 1 view .LVU795
	.loc 5 15 16 is_stmt 0 view .LVU796
	movl	%eax, %ecx
	sarl	$16, %ecx
	.loc 5 15 7 view .LVU797
	orl	%ecx, %eax
.LVL251:
	.loc 5 16 5 is_stmt 1 view .LVU798
	.loc 5 16 19 is_stmt 0 view .LVU799
	movl	%eax, %ecx
	sarl	%ecx
	.loc 5 16 23 view .LVU800
	subl	%ecx, %eax
.LVL252:
	.loc 5 16 23 view .LVU801
.LBE1664:
.LBE1663:
	.loc 5 30 5 is_stmt 1 view .LVU802
	.loc 5 30 9 is_stmt 0 view .LVU803
	movl	%eax, %ebx
	.loc 5 32 21 view .LVU804
	movl	%eax, %ecx
	.loc 5 30 9 view .LVU805
	sarl	%ebx
.LVL253:
	.loc 5 32 5 is_stmt 1 view .LVU806
	.loc 5 32 21 is_stmt 0 view .LVU807
	andl	$-2, %ecx
	addl	%ebx, %ecx
	.loc 5 32 37 view .LVU808
	cmpl	%edx, %ecx
	.loc 5 34 9 view .LVU809
	movl	%r8d, %ecx
	.loc 5 32 9 view .LVU810
	setg	%r11b
	.loc 5 32 37 view .LVU811
	setg	%bpl
.LVL254:
	.loc 5 33 5 is_stmt 1 view .LVU812
	.loc 5 34 5 view .LVU813
	.loc 5 36 5 view .LVU814
	.loc 5 36 62 is_stmt 0 view .LVU815
	subl	$1, %eax
.LVL255:
	.loc 5 32 9 view .LVU816
	movzbl	%r11b, %r11d
.LVL256:
	.loc 5 34 34 view .LVU817
	addl	%r11d, %r11d
.LVL257:
	.loc 5 34 9 view .LVU818
	subl	%r11d, %ecx
	.loc 5 36 54 view .LVU819
	imull	%ecx, %eax
.LVL258:
	.loc 5 36 35 view .LVU820
	testb	%bpl, %bpl
	.loc 5 36 30 view .LVU821
	leal	-1(%rdx,%rbx), %ecx
	.loc 5 36 35 view .LVU822
	cmove	%r9d, %ecx
	.loc 5 36 9 view .LVU823
	addl	%ecx, %eax
.LVL259:
	.loc 5 37 5 is_stmt 1 view .LVU824
	.loc 5 37 5 is_stmt 0 view .LVU825
.LBE1665:
.LBE1682:
.LBB1683:
	.loc 5 248 13 view .LVU826
	cmpl	%eax, %edi
	jle	.L116
.LVL260:
.LBB1681:
.LBB1680:
.LBI1668:
	.loc 5 186 14 is_stmt 1 view .LVU827
.LBB1679:
.LBB1670:
.LBB1671:
.LBB1672:
	.loc 6 505 24 is_stmt 0 view .LVU828
.LBE1672:
.LBE1671:
.LBE1670:
	.loc 5 188 17 view .LVU829
	movl	%esi, %ecx
	sarl	$31, %ecx
	shrl	$29, %ecx
	leal	(%rsi,%rcx), %r11d
	andl	$7, %r11d
	subl	%ecx, %r11d
	.loc 5 189 36 view .LVU830
	movl	%r10d, %ecx
	subl	%r11d, %ecx
	.loc 5 189 30 view .LVU831
	movl	%r8d, %r11d
	sall	%cl, %r11d
.LVL261:
.LBB1677:
.LBI1670:
	.loc 6 364 7 is_stmt 1 view .LVU832
.LBB1675:
.LBI1671:
	.loc 6 498 7 view .LVU833
.LBB1673:
	.loc 6 502 2 discriminator 2 view .LVU834
	.loc 6 503 2 discriminator 2 view .LVU835
.LBE1673:
.LBE1675:
.LBE1677:
	.loc 5 187 17 is_stmt 0 view .LVU836
	testl	%esi, %esi
	leal	7(%rsi), %ecx
	cmovns	%esi, %ecx
	sarl	$3, %ecx
.LBB1678:
.LBB1676:
.LBB1674:
	.loc 6 505 25 view .LVU837
	movslq	%ecx, %rcx
	.loc 6 505 24 view .LVU838
	movzbl	16(%rsp,%rcx), %ecx
.LVL262:
	.loc 6 505 24 view .LVU839
.LBE1674:
.LBE1676:
.LBE1678:
.LBE1679:
.LBE1680:
	.loc 5 250 17 view .LVU840
	notl	%ecx
.LVL263:
	.loc 5 250 17 view .LVU841
	testb	%r11b, %cl
	jne	.L122
	.loc 5 252 47 view .LVU842
	subl	%eax, %edx
.LVL264:
	.loc 5 253 27 view .LVU843
	subl	%eax, %edi
.LVL265:
	.loc 5 251 33 view .LVU844
	leal	2(%rsi,%rsi), %esi
.LVL266:
	.loc 5 252 33 view .LVU845
	subl	$1, %edx
.LVL267:
	.loc 5 253 23 view .LVU846
	subl	$1, %edi
.LVL268:
	.loc 5 253 23 view .LVU847
.LBE1681:
.LBE1683:
.LBE1684:
	.loc 5 261 28 is_stmt 1 view .LVU848
	testl	%edx, %edx
	jg	.L121
.LVL269:
.L122:
	.loc 5 263 27 view .LVU849
.LBB1685:
.LBB1686:
.LBB1687:
	.loc 5 198 43 is_stmt 0 view .LVU850
	movl	$1, %edi
.LVL270:
	.loc 5 198 43 view .LVU851
.LBE1687:
.LBE1686:
.LBE1685:
	.loc 5 263 27 view .LVU852
	testl	%esi, %esi
	jg	.L118
	.loc 5 263 27 view .LVU853
	jmp	.L124
.LVL271:
	.p2align 4,,10
	.p2align 3
.L123:
	.loc 5 263 27 is_stmt 1 view .LVU854
	testl	%esi, %esi
	je	.L124
.LVL272:
.L118:
.LBB1695:
	.loc 5 264 39 is_stmt 0 view .LVU855
	leal	-1(%rsi), %eax
	movl	%esi, %edx
	.loc 5 264 17 view .LVU856
	movl	%eax, %esi
.LVL273:
	.loc 5 264 17 view .LVU857
	sarl	%esi
.LVL274:
	.loc 5 265 13 view .LVU858
	andl	$1, %edx
.LVL275:
	.loc 5 265 13 view .LVU859
	je	.L123
.LVL276:
.LBB1694:
.LBI1686:
	.loc 5 195 14 is_stmt 1 view .LVU860
.LBB1693:
.LBB1688:
.LBI1688:
	.loc 6 653 7 view .LVU861
.LBE1688:
	.loc 5 198 43 is_stmt 0 view .LVU862
	movl	%esi, %ecx
	movl	%edi, %edx
	.loc 5 196 17 view .LVU863
	sarl	$4, %eax
.LVL277:
	.loc 5 198 43 view .LVU864
	notl	%ecx
.LBB1691:
.LBB1689:
	.loc 6 655 35 view .LVU865
	cltq
	.loc 6 655 35 view .LVU866
.LBE1689:
.LBE1691:
	.loc 5 198 43 view .LVU867
	andl	$7, %ecx
	sall	%cl, %edx
	.loc 5 198 21 view .LVU868
	notl	%edx
.LBB1692:
.LBB1690:
	.loc 6 655 34 view .LVU869
	lock andb	%dl, 16(%rsp,%rax)
.LVL278:
	.loc 6 655 34 view .LVU870
.LBE1690:
.LBE1692:
.LBE1693:
.LBE1694:
.LBE1695:
	.loc 5 263 27 is_stmt 1 view .LVU871
	testl	%esi, %esi
	jne	.L118
.LVL279:
.L124:
	.loc 5 263 27 is_stmt 0 view .LVU872
.LBE1696:
.LBE1698:
.LBE1699:
.LBE1700:
	.loc 4 39 5 is_stmt 1 view .LVU873
.LBB1701:
.LBI1701:
	.file 11 "/usr/include/c++/13.1.1/ostream"
	.loc 11 662 5 view .LVU874
.LBB1702:
	.loc 11 667 18 is_stmt 0 view .LVU875
	leaq	_ZSt4cout(%rip), %rbp
.LVL280:
	.loc 11 667 18 view .LVU876
	movl	$23, %edx
	leaq	.LC5(%rip), %rsi
	movq	%rbp, %rdi
	call	_ZSt16__ostream_insertIcSt11char_traitsIcEERSt13basic_ostreamIT_T0_ES6_PKS3_l@PLT
.LVL281:
	.loc 11 667 18 view .LVU877
.LBE1702:
.LBE1701:
.LBB1703:
.LBI1703:
	.loc 5 289 9 is_stmt 1 view .LVU878
.LBB1704:
	.loc 5 291 13 is_stmt 0 view .LVU879
	xorl	%r10d, %r10d
	.loc 5 290 28 view .LVU880
	movl	$512, %esi
	.loc 5 290 13 view .LVU881
	xorl	%edx, %edx
.LBB1705:
.LBB1706:
.LBB1707:
	.loc 5 189 36 view .LVU882
	movl	$7, %r9d
	.loc 5 189 30 view .LVU883
	movl	$1, %edi
.LBE1707:
.LBE1706:
.LBB1722:
.LBB1723:
	.loc 5 36 35 view .LVU884
	xorl	%r8d, %r8d
.LVL282:
	.p2align 4,,10
	.p2align 3
.L119:
	.loc 5 36 35 view .LVU885
.LBE1723:
.LBE1722:
.LBB1733:
.LBI1706:
	.loc 5 186 14 is_stmt 1 view .LVU886
.LBB1720:
.LBB1708:
.LBB1709:
.LBB1710:
	.loc 6 505 24 is_stmt 0 view .LVU887
.LBE1710:
.LBE1709:
.LBE1708:
	.loc 5 188 17 view .LVU888
	movl	%edx, %ecx
	.loc 5 189 30 view .LVU889
	movl	%edi, %r11d
	.loc 5 188 17 view .LVU890
	sarl	$31, %ecx
	shrl	$29, %ecx
	leal	(%rdx,%rcx), %eax
	andl	$7, %eax
	subl	%ecx, %eax
	.loc 5 189 36 view .LVU891
	movl	%r9d, %ecx
	subl	%eax, %ecx
	.loc 5 187 17 view .LVU892
	leal	7(%rdx), %eax
	.loc 5 189 30 view .LVU893
	sall	%cl, %r11d
.LVL283:
.LBB1717:
.LBI1708:
	.loc 6 364 7 is_stmt 1 view .LVU894
.LBB1714:
.LBI1709:
	.loc 6 498 7 view .LVU895
.LBB1711:
	.loc 6 502 2 discriminator 2 view .LVU896
	.loc 6 503 2 discriminator 2 view .LVU897
.LBE1711:
.LBE1714:
.LBE1717:
	.loc 5 187 17 is_stmt 0 view .LVU898
	testl	%edx, %edx
	cmovns	%edx, %eax
	sarl	$3, %eax
.LBB1718:
.LBB1715:
.LBB1712:
	.loc 6 505 25 view .LVU899
	cltq
	.loc 6 505 24 view .LVU900
	movzbl	16(%rsp,%rax), %ecx
.LBE1712:
.LBE1715:
.LBE1718:
.LBE1720:
.LBE1733:
.LBB1734:
.LBB1730:
.LBB1724:
.LBB1725:
	.loc 5 11 16 view .LVU901
	movl	%esi, %eax
.LBE1725:
.LBE1724:
.LBE1730:
.LBE1734:
.LBB1735:
.LBB1721:
.LBB1719:
.LBB1716:
.LBB1713:
	.loc 6 505 24 view .LVU902
.LVL284:
	.loc 6 505 24 view .LVU903
.LBE1713:
.LBE1716:
.LBE1719:
.LBE1721:
.LBE1735:
.LBB1736:
.LBI1722:
	.loc 5 28 19 is_stmt 1 view .LVU904
.LBB1731:
	.loc 5 29 5 view .LVU905
.LBB1728:
.LBI1724:
	.loc 5 10 19 view .LVU906
.LBB1726:
	.loc 5 11 5 view .LVU907
	.loc 5 11 16 is_stmt 0 view .LVU908
	sarl	%eax
	.loc 5 11 7 view .LVU909
	orl	%esi, %eax
.LVL285:
	.loc 5 12 5 is_stmt 1 view .LVU910
.LBE1726:
.LBE1728:
.LBE1731:
.LBE1736:
	.loc 5 296 13 is_stmt 0 view .LVU911
	notl	%ecx
.LVL286:
.LBB1737:
.LBB1732:
.LBB1729:
.LBB1727:
	.loc 5 12 16 view .LVU912
	movl	%eax, %ebx
	sarl	$2, %ebx
	.loc 5 12 7 view .LVU913
	orl	%ebx, %eax
.LVL287:
	.loc 5 13 5 is_stmt 1 view .LVU914
	.loc 5 13 16 is_stmt 0 view .LVU915
	movl	%eax, %ebx
	sarl	$4, %ebx
	.loc 5 13 7 view .LVU916
	orl	%ebx, %eax
.LVL288:
	.loc 5 14 5 is_stmt 1 view .LVU917
	.loc 5 14 16 is_stmt 0 view .LVU918
	movl	%eax, %ebx
	sarl	$8, %ebx
	.loc 5 14 7 view .LVU919
	orl	%ebx, %eax
.LVL289:
	.loc 5 15 5 is_stmt 1 view .LVU920
	.loc 5 15 16 is_stmt 0 view .LVU921
	movl	%eax, %ebx
	sarl	$16, %ebx
	.loc 5 15 7 view .LVU922
	orl	%ebx, %eax
.LVL290:
	.loc 5 16 5 is_stmt 1 view .LVU923
	.loc 5 16 19 is_stmt 0 view .LVU924
	movl	%eax, %ebx
	sarl	%ebx
	.loc 5 16 23 view .LVU925
	subl	%ebx, %eax
.LVL291:
	.loc 5 16 23 view .LVU926
.LBE1727:
.LBE1729:
	.loc 5 30 5 is_stmt 1 view .LVU927
	.loc 5 30 9 is_stmt 0 view .LVU928
	movl	%eax, %r13d
	.loc 5 32 21 view .LVU929
	movl	%eax, %ebx
	.loc 5 30 9 view .LVU930
	sarl	%r13d
.LVL292:
	.loc 5 32 5 is_stmt 1 view .LVU931
	.loc 5 32 21 is_stmt 0 view .LVU932
	andl	$-2, %ebx
	addl	%r13d, %ebx
	.loc 5 32 37 view .LVU933
	cmpl	%esi, %ebx
	.loc 5 34 9 view .LVU934
	movl	%edi, %ebx
	.loc 5 32 9 view .LVU935
	setg	%r14b
	.loc 5 32 37 view .LVU936
	setg	%r12b
.LVL293:
	.loc 5 33 5 is_stmt 1 view .LVU937
	.loc 5 34 5 view .LVU938
	.loc 5 36 5 view .LVU939
	.loc 5 36 62 is_stmt 0 view .LVU940
	subl	$1, %eax
.LVL294:
	.loc 5 32 9 view .LVU941
	movzbl	%r14b, %r14d
.LVL295:
	.loc 5 34 34 view .LVU942
	addl	%r14d, %r14d
.LVL296:
	.loc 5 34 9 view .LVU943
	subl	%r14d, %ebx
	.loc 5 36 54 view .LVU944
	imull	%ebx, %eax
.LVL297:
	.loc 5 36 35 view .LVU945
	testb	%r12b, %r12b
	.loc 5 36 30 view .LVU946
	leal	-1(%rsi,%r13), %ebx
	.loc 5 36 35 view .LVU947
	cmove	%r8d, %ebx
	.loc 5 36 9 view .LVU948
	addl	%ebx, %eax
.LVL298:
	.loc 5 37 5 is_stmt 1 view .LVU949
	.loc 5 37 5 is_stmt 0 view .LVU950
.LBE1732:
.LBE1737:
	.loc 5 296 13 view .LVU951
	testb	%r11b, %cl
	je	.L230
	.loc 5 305 29 view .LVU952
	leal	1(%rdx,%rdx), %edx
.LVL299:
	.loc 5 305 29 view .LVU953
.LBE1705:
	.loc 5 308 28 is_stmt 1 view .LVU954
	testl	%eax, %eax
	jle	.L127
.LVL300:
.L126:
	.loc 5 290 13 is_stmt 0 view .LVU955
	movl	%eax, %esi
	jmp	.L119
.LVL301:
.L230:
.LBB1738:
	.loc 5 301 43 view .LVU956
	subl	%eax, %esi
.LVL302:
	.loc 5 299 21 view .LVU957
	leal	1(%r10,%rax), %r10d
.LVL303:
	.loc 5 300 29 view .LVU958
	leal	2(%rdx,%rdx), %edx
.LVL304:
	.loc 5 301 29 view .LVU959
	leal	-1(%rsi), %eax
.LVL305:
	.loc 5 301 29 view .LVU960
.LBE1738:
	.loc 5 308 28 is_stmt 1 view .LVU961
	testl	%eax, %eax
	jg	.L126
.L127:
.LVL306:
	.loc 5 308 28 is_stmt 0 view .LVU962
.LBE1704:
.LBE1703:
	.loc 4 39 52 discriminator 2 view .LVU963
	movl	%r10d, %esi
	movq	%rbp, %rdi
	call	_ZNSolsEi@PLT
.LVL307:
	.loc 4 39 52 discriminator 2 view .LVU964
	movq	%rax, %r12
.LVL308:
.LBB1739:
.LBI1739:
	.loc 11 110 7 is_stmt 1 view .LVU965
.LBB1740:
.LBI1740:
	.loc 11 735 5 view .LVU966
.LBB1741:
	.loc 11 736 39 is_stmt 0 view .LVU967
	movq	(%rax), %rax
.LVL309:
	.loc 11 736 39 view .LVU968
	movq	-24(%rax), %rax
	movq	240(%r12,%rax), %rbx
.LVL310:
.LBB1742:
.LBI1742:
	.file 12 "/usr/include/c++/13.1.1/bits/basic_ios.h"
	.loc 12 449 7 is_stmt 1 view .LVU969
.LBB1743:
.LBI1743:
	.loc 12 47 5 view .LVU970
.LBB1744:
	.loc 12 49 7 is_stmt 0 view .LVU971
	testq	%rbx, %rbx
	je	.L145
.LVL311:
	.loc 12 49 7 view .LVU972
.LBE1744:
.LBE1743:
.LBB1746:
.LBI1746:
	.loc 1 880 7 is_stmt 1 view .LVU973
.LBB1747:
	.loc 1 882 2 view .LVU974
	cmpb	$0, 56(%rbx)
	je	.L130
	.loc 1 883 4 view .LVU975
.LBE1747:
.LBE1746:
.LBE1742:
	.loc 11 736 19 is_stmt 0 discriminator 1 view .LVU976
	movsbl	67(%rbx), %esi
.LVL312:
.L131:
	.loc 11 736 19 discriminator 1 view .LVU977
	movq	%r12, %rdi
.LBB1753:
.LBB1754:
	.loc 11 758 24 view .LVU978
	movl	$700, %r14d
.LBE1754:
.LBE1753:
.LBE1741:
.LBE1740:
.LBE1739:
.LBB1765:
	.loc 4 41 13 view .LVU979
	movl	$500, %ebx
.LBB1766:
.LBB1767:
	.loc 5 245 13 view .LVU980
	xorl	%r12d, %r12d
.LVL313:
	.loc 5 245 13 view .LVU981
.LBE1767:
.LBE1766:
.LBE1765:
.LBB2071:
.LBB1762:
.LBB1759:
	.loc 11 736 19 discriminator 1 view .LVU982
	call	_ZNSo3putEc@PLT
.LVL314:
	.loc 11 736 19 discriminator 1 view .LVU983
.LBE1759:
.LBE1762:
.LBE2071:
.LBB2072:
.LBB1815:
.LBB1812:
.LBB1768:
.LBB1769:
.LBB1770:
.LBB1771:
.LBB1772:
	.loc 5 189 36 view .LVU984
	movl	$7, %r13d
.LBE1772:
.LBE1771:
.LBE1770:
.LBE1769:
.LBE1768:
.LBE1812:
.LBE1815:
.LBE2072:
.LBB2073:
.LBB1763:
.LBB1760:
	.loc 11 736 19 discriminator 1 view .LVU985
	movq	%rax, %rdi
.LVL315:
.LBB1756:
.LBI1753:
	.loc 11 757 5 is_stmt 1 view .LVU986
.LBB1755:
	.loc 11 758 24 is_stmt 0 view .LVU987
	call	_ZNSo5flushEv@PLT
.LVL316:
	.loc 11 758 24 view .LVU988
.LBE1755:
.LBE1756:
.LBE1760:
.LBE1763:
.LBE2073:
.LBB2074:
	.loc 4 41 24 is_stmt 1 discriminator 1 view .LVU989
	.p2align 4,,10
	.p2align 3
.L180:
	.loc 4 41 13 is_stmt 0 view .LVU990
	movl	%ebx, %edi
.LBB1816:
.LBB1813:
	.loc 5 245 13 view .LVU991
	xorl	%esi, %esi
	.loc 5 244 13 view .LVU992
	movl	$512, %edx
.LBB1797:
.LBB1785:
.LBB1786:
	.loc 5 34 9 view .LVU993
	movl	$1, %r8d
	jmp	.L137
.LVL317:
	.p2align 4,,10
	.p2align 3
.L132:
	.loc 5 34 9 view .LVU994
.LBE1786:
.LBE1785:
.LBB1792:
	.loc 5 259 29 view .LVU995
	movl	%eax, %edx
.LVL318:
	.loc 5 258 29 view .LVU996
	leal	1(%rsi,%rsi), %esi
.LVL319:
	.loc 5 258 29 view .LVU997
.LBE1792:
.LBE1797:
	.loc 5 261 28 is_stmt 1 view .LVU998
	testl	%edx, %edx
	jle	.L138
.LVL320:
.L137:
.LBB1798:
.LBB1793:
.LBI1785:
	.loc 5 28 19 view .LVU999
.LBB1791:
	.loc 5 29 5 view .LVU1000
.LBB1787:
.LBI1787:
	.loc 5 10 19 view .LVU1001
.LBB1788:
	.loc 5 11 5 view .LVU1002
	.loc 5 11 16 is_stmt 0 view .LVU1003
	movl	%edx, %eax
.LBE1788:
.LBE1787:
	.loc 5 34 9 view .LVU1004
	movl	%r8d, %r9d
.LBB1790:
.LBB1789:
	.loc 5 11 16 view .LVU1005
	sarl	%eax
	.loc 5 11 7 view .LVU1006
	orl	%edx, %eax
.LVL321:
	.loc 5 12 5 is_stmt 1 view .LVU1007
	.loc 5 12 16 is_stmt 0 view .LVU1008
	movl	%eax, %ecx
	sarl	$2, %ecx
	.loc 5 12 7 view .LVU1009
	orl	%ecx, %eax
.LVL322:
	.loc 5 13 5 is_stmt 1 view .LVU1010
	.loc 5 13 16 is_stmt 0 view .LVU1011
	movl	%eax, %ecx
	sarl	$4, %ecx
	.loc 5 13 7 view .LVU1012
	orl	%ecx, %eax
.LVL323:
	.loc 5 14 5 is_stmt 1 view .LVU1013
	.loc 5 14 16 is_stmt 0 view .LVU1014
	movl	%eax, %ecx
	sarl	$8, %ecx
	.loc 5 14 7 view .LVU1015
	orl	%ecx, %eax
.LVL324:
	.loc 5 15 5 is_stmt 1 view .LVU1016
	.loc 5 15 16 is_stmt 0 view .LVU1017
	movl	%eax, %ecx
	sarl	$16, %ecx
	.loc 5 15 7 view .LVU1018
	orl	%ecx, %eax
.LVL325:
	.loc 5 16 5 is_stmt 1 view .LVU1019
	.loc 5 16 19 is_stmt 0 view .LVU1020
	movl	%eax, %ecx
	sarl	%ecx
	.loc 5 16 23 view .LVU1021
	subl	%ecx, %eax
.LVL326:
	.loc 5 16 23 view .LVU1022
.LBE1789:
.LBE1790:
	.loc 5 30 5 is_stmt 1 view .LVU1023
	.loc 5 30 9 is_stmt 0 view .LVU1024
	movl	%eax, %r11d
	.loc 5 32 21 view .LVU1025
	movl	%eax, %ecx
	.loc 5 30 9 view .LVU1026
	sarl	%r11d
.LVL327:
	.loc 5 32 5 is_stmt 1 view .LVU1027
	.loc 5 32 21 is_stmt 0 view .LVU1028
	andl	$-2, %ecx
	addl	%r11d, %ecx
	.loc 5 32 37 view .LVU1029
	cmpl	%edx, %ecx
	.loc 5 32 9 view .LVU1030
	setg	%cl
	.loc 5 32 37 view .LVU1031
	setg	%r10b
.LVL328:
	.loc 5 33 5 is_stmt 1 view .LVU1032
	.loc 5 34 5 view .LVU1033
	.loc 5 36 5 view .LVU1034
	.loc 5 32 9 is_stmt 0 view .LVU1035
	movzbl	%cl, %ecx
.LVL329:
	.loc 5 34 34 view .LVU1036
	addl	%ecx, %ecx
.LVL330:
	.loc 5 34 9 view .LVU1037
	subl	%ecx, %r9d
	.loc 5 36 62 view .LVU1038
	leal	-1(%rax), %ecx
	.loc 5 36 54 view .LVU1039
	movl	%r9d, %eax
.LVL331:
	.loc 5 36 54 view .LVU1040
	imull	%ecx, %eax
	.loc 5 36 35 view .LVU1041
	testb	%r10b, %r10b
	.loc 5 36 30 view .LVU1042
	leal	-1(%rdx,%r11), %ecx
.LVL332:
	.loc 5 36 35 view .LVU1043
	cmove	%r12d, %ecx
	.loc 5 36 9 view .LVU1044
	addl	%ecx, %eax
.LVL333:
	.loc 5 37 5 is_stmt 1 view .LVU1045
	.loc 5 37 5 is_stmt 0 view .LVU1046
.LBE1791:
.LBE1793:
.LBB1794:
	.loc 5 248 13 view .LVU1047
	cmpl	%eax, %edi
	jle	.L132
.LVL334:
.LBB1784:
.LBB1783:
.LBI1771:
	.loc 5 186 14 is_stmt 1 view .LVU1048
.LBB1782:
.LBB1773:
.LBB1774:
.LBB1775:
	.loc 6 505 24 is_stmt 0 view .LVU1049
.LBE1775:
.LBE1774:
.LBE1773:
	.loc 5 188 17 view .LVU1050
	movl	%esi, %ecx
	sarl	$31, %ecx
	shrl	$29, %ecx
	leal	(%rsi,%rcx), %r9d
	andl	$7, %r9d
	subl	%ecx, %r9d
	.loc 5 189 36 view .LVU1051
	movl	%r13d, %ecx
	subl	%r9d, %ecx
	.loc 5 189 30 view .LVU1052
	movl	%r8d, %r9d
	sall	%cl, %r9d
.LVL335:
.LBB1780:
.LBI1773:
	.loc 6 364 7 is_stmt 1 view .LVU1053
.LBB1778:
.LBI1774:
	.loc 6 498 7 view .LVU1054
.LBB1776:
	.loc 6 502 2 discriminator 2 view .LVU1055
	.loc 6 503 2 discriminator 2 view .LVU1056
.LBE1776:
.LBE1778:
.LBE1780:
	.loc 5 187 17 is_stmt 0 view .LVU1057
	testl	%esi, %esi
	leal	7(%rsi), %ecx
	cmovns	%esi, %ecx
	sarl	$3, %ecx
.LBB1781:
.LBB1779:
.LBB1777:
	.loc 6 505 25 view .LVU1058
	movslq	%ecx, %rcx
	.loc 6 505 24 view .LVU1059
	movzbl	16(%rsp,%rcx), %ecx
.LVL336:
	.loc 6 505 24 view .LVU1060
.LBE1777:
.LBE1779:
.LBE1781:
.LBE1782:
.LBE1783:
	.loc 5 250 17 view .LVU1061
	notl	%ecx
.LVL337:
	.loc 5 250 17 view .LVU1062
	testb	%r9b, %cl
	jne	.L138
	.loc 5 252 47 view .LVU1063
	subl	%eax, %edx
.LVL338:
	.loc 5 253 27 view .LVU1064
	subl	%eax, %edi
.LVL339:
	.loc 5 251 33 view .LVU1065
	leal	2(%rsi,%rsi), %esi
.LVL340:
	.loc 5 252 33 view .LVU1066
	subl	$1, %edx
.LVL341:
	.loc 5 253 23 view .LVU1067
	subl	$1, %edi
.LVL342:
	.loc 5 253 23 view .LVU1068
.LBE1784:
.LBE1794:
.LBE1798:
	.loc 5 261 28 is_stmt 1 view .LVU1069
	testl	%edx, %edx
	jg	.L137
.LVL343:
.L138:
	.loc 5 263 27 view .LVU1070
.LBB1799:
.LBB1800:
.LBB1801:
	.loc 5 198 43 is_stmt 0 view .LVU1071
	movl	$1, %edi
.LVL344:
	.loc 5 198 43 view .LVU1072
.LBE1801:
.LBE1800:
.LBE1799:
	.loc 5 263 27 view .LVU1073
	testl	%esi, %esi
	jg	.L134
	.loc 5 263 27 view .LVU1074
	jmp	.L140
.LVL345:
	.p2align 4,,10
	.p2align 3
.L139:
	.loc 5 263 27 is_stmt 1 view .LVU1075
	testl	%esi, %esi
	je	.L140
.LVL346:
.L134:
.LBB1809:
	.loc 5 264 39 is_stmt 0 view .LVU1076
	leal	-1(%rsi), %eax
	movl	%esi, %edx
	.loc 5 264 17 view .LVU1077
	movl	%eax, %esi
.LVL347:
	.loc 5 264 17 view .LVU1078
	sarl	%esi
.LVL348:
	.loc 5 265 13 view .LVU1079
	andl	$1, %edx
.LVL349:
	.loc 5 265 13 view .LVU1080
	je	.L139
.LVL350:
.LBB1808:
.LBI1800:
	.loc 5 195 14 is_stmt 1 view .LVU1081
.LBB1807:
.LBB1802:
.LBI1802:
	.loc 6 653 7 view .LVU1082
.LBE1802:
	.loc 5 198 43 is_stmt 0 view .LVU1083
	movl	%esi, %ecx
	movl	%edi, %edx
	.loc 5 196 17 view .LVU1084
	sarl	$4, %eax
.LVL351:
	.loc 5 198 43 view .LVU1085
	notl	%ecx
.LBB1805:
.LBB1803:
	.loc 6 655 35 view .LVU1086
	cltq
	.loc 6 655 35 view .LVU1087
.LBE1803:
.LBE1805:
	.loc 5 198 43 view .LVU1088
	andl	$7, %ecx
	sall	%cl, %edx
	.loc 5 198 21 view .LVU1089
	notl	%edx
.LBB1806:
.LBB1804:
	.loc 6 655 34 view .LVU1090
	lock andb	%dl, 16(%rsp,%rax)
.LVL352:
	.loc 6 655 34 view .LVU1091
.LBE1804:
.LBE1806:
.LBE1807:
.LBE1808:
.LBE1809:
	.loc 5 263 27 is_stmt 1 view .LVU1092
	testl	%esi, %esi
	jne	.L134
.LVL353:
.L140:
	.loc 5 263 27 is_stmt 0 view .LVU1093
	movl	%ebx, 12(%rsp)
.LBB1810:
.LBB1795:
	.loc 5 259 29 view .LVU1094
	xorl	%r15d, %r15d
	movl	$512, %edi
	.loc 5 259 29 view .LVU1095
	xorl	%esi, %esi
.LVL354:
	.loc 5 259 29 view .LVU1096
.LBE1795:
.LBE1810:
.LBE1813:
.LBE1816:
.LBB1817:
.LBB1818:
.LBB1819:
.LBB1820:
.LBB1821:
	.loc 5 189 30 view .LVU1097
	movl	$1, %r10d
.LVL355:
	.p2align 4,,10
	.p2align 3
.L135:
	.loc 5 189 30 view .LVU1098
.LBE1821:
.LBI1820:
	.loc 5 186 14 is_stmt 1 view .LVU1099
.LBB1834:
.LBB1822:
.LBB1823:
.LBB1824:
	.loc 6 505 24 is_stmt 0 view .LVU1100
.LBE1824:
.LBE1823:
.LBE1822:
	.loc 5 188 17 view .LVU1101
	movl	%esi, %edx
	.loc 5 189 36 view .LVU1102
	movl	%r13d, %ecx
	.loc 5 189 30 view .LVU1103
	movl	%r10d, %r11d
	.loc 5 188 17 view .LVU1104
	sarl	$31, %edx
	shrl	$29, %edx
	leal	(%rsi,%rdx), %eax
	andl	$7, %eax
	subl	%edx, %eax
	.loc 5 189 36 view .LVU1105
	subl	%eax, %ecx
	.loc 5 187 17 view .LVU1106
	leal	7(%rsi), %eax
	.loc 5 189 30 view .LVU1107
	sall	%cl, %r11d
.LVL356:
.LBB1831:
.LBI1822:
	.loc 6 364 7 is_stmt 1 view .LVU1108
.LBB1828:
.LBI1823:
	.loc 6 498 7 view .LVU1109
.LBB1825:
	.loc 6 502 2 discriminator 2 view .LVU1110
	.loc 6 503 2 discriminator 2 view .LVU1111
.LBE1825:
.LBE1828:
.LBE1831:
	.loc 5 187 17 is_stmt 0 view .LVU1112
	testl	%esi, %esi
	cmovns	%esi, %eax
	sarl	$3, %eax
.LBB1832:
.LBB1829:
.LBB1826:
	.loc 6 505 25 view .LVU1113
	cltq
	.loc 6 505 24 view .LVU1114
	movzbl	16(%rsp,%rax), %ecx
.LBE1826:
.LBE1829:
.LBE1832:
.LBE1834:
.LBE1820:
.LBB1836:
.LBB1837:
.LBB1838:
.LBB1839:
	.loc 5 11 16 view .LVU1115
	movl	%edi, %eax
.LBE1839:
.LBE1838:
.LBE1837:
.LBE1836:
.LBB1846:
.LBB1835:
.LBB1833:
.LBB1830:
.LBB1827:
	.loc 6 505 24 view .LVU1116
.LVL357:
	.loc 6 505 24 view .LVU1117
.LBE1827:
.LBE1830:
.LBE1833:
.LBE1835:
.LBE1846:
.LBB1847:
.LBI1836:
	.loc 5 28 19 is_stmt 1 view .LVU1118
.LBB1844:
	.loc 5 29 5 view .LVU1119
.LBB1842:
.LBI1838:
	.loc 5 10 19 view .LVU1120
.LBB1840:
	.loc 5 11 5 view .LVU1121
	.loc 5 11 16 is_stmt 0 view .LVU1122
	sarl	%eax
	.loc 5 11 7 view .LVU1123
	orl	%edi, %eax
.LVL358:
	.loc 5 12 5 is_stmt 1 view .LVU1124
.LBE1840:
.LBE1842:
.LBE1844:
.LBE1847:
	.loc 5 296 13 is_stmt 0 view .LVU1125
	notl	%ecx
.LVL359:
.LBB1848:
.LBB1845:
.LBB1843:
.LBB1841:
	.loc 5 12 16 view .LVU1126
	movl	%eax, %edx
	sarl	$2, %edx
	.loc 5 12 7 view .LVU1127
	orl	%edx, %eax
.LVL360:
	.loc 5 13 5 is_stmt 1 view .LVU1128
	.loc 5 13 16 is_stmt 0 view .LVU1129
	movl	%eax, %edx
	sarl	$4, %edx
	.loc 5 13 7 view .LVU1130
	orl	%edx, %eax
.LVL361:
	.loc 5 14 5 is_stmt 1 view .LVU1131
	.loc 5 14 16 is_stmt 0 view .LVU1132
	movl	%eax, %edx
	sarl	$8, %edx
	.loc 5 14 7 view .LVU1133
	orl	%edx, %eax
.LVL362:
	.loc 5 15 5 is_stmt 1 view .LVU1134
	.loc 5 15 16 is_stmt 0 view .LVU1135
	movl	%eax, %edx
	sarl	$16, %edx
	.loc 5 15 7 view .LVU1136
	orl	%edx, %eax
.LVL363:
	.loc 5 16 5 is_stmt 1 view .LVU1137
	.loc 5 16 19 is_stmt 0 view .LVU1138
	movl	%eax, %edx
	sarl	%edx
	.loc 5 16 23 view .LVU1139
	subl	%edx, %eax
.LVL364:
	.loc 5 16 23 view .LVU1140
.LBE1841:
.LBE1843:
	.loc 5 30 5 is_stmt 1 view .LVU1141
	.loc 5 30 9 is_stmt 0 view .LVU1142
	movl	%eax, %r9d
	.loc 5 32 21 view .LVU1143
	movl	%eax, %edx
	.loc 5 30 9 view .LVU1144
	sarl	%r9d
.LVL365:
	.loc 5 32 5 is_stmt 1 view .LVU1145
	.loc 5 32 21 is_stmt 0 view .LVU1146
	andl	$-2, %edx
	addl	%r9d, %edx
	.loc 5 32 37 view .LVU1147
	cmpl	%edi, %edx
	.loc 5 34 9 view .LVU1148
	movl	%r10d, %edx
	.loc 5 32 9 view .LVU1149
	setg	%r8b
	.loc 5 32 37 view .LVU1150
	setg	%bl
.LVL366:
	.loc 5 33 5 is_stmt 1 view .LVU1151
	.loc 5 34 5 view .LVU1152
	.loc 5 36 5 view .LVU1153
	.loc 5 36 62 is_stmt 0 view .LVU1154
	subl	$1, %eax
.LVL367:
	.loc 5 32 9 view .LVU1155
	movzbl	%r8b, %r8d
.LVL368:
	.loc 5 34 34 view .LVU1156
	addl	%r8d, %r8d
.LVL369:
	.loc 5 34 9 view .LVU1157
	subl	%r8d, %edx
	.loc 5 36 54 view .LVU1158
	imull	%eax, %edx
	.loc 5 36 35 view .LVU1159
	testb	%bl, %bl
	.loc 5 36 30 view .LVU1160
	leal	-1(%rdi,%r9), %eax
.LVL370:
	.loc 5 36 35 view .LVU1161
	cmove	%r12d, %eax
	.loc 5 36 9 view .LVU1162
	addl	%eax, %edx
.LVL371:
	.loc 5 37 5 is_stmt 1 view .LVU1163
	.loc 5 37 5 is_stmt 0 view .LVU1164
.LBE1845:
.LBE1848:
	.loc 5 296 13 view .LVU1165
	testb	%r11b, %cl
	je	.L231
	.loc 5 305 29 view .LVU1166
	leal	1(%rsi,%rsi), %esi
.LVL372:
	.loc 5 305 29 view .LVU1167
.LBE1819:
	.loc 5 308 28 is_stmt 1 view .LVU1168
	testl	%edx, %edx
	jle	.L226
.LVL373:
.L142:
	.loc 5 308 28 is_stmt 0 view .LVU1169
.LBE1818:
.LBE1817:
.LBB1851:
.LBB1814:
.LBB1811:
.LBB1796:
	.loc 5 259 29 view .LVU1170
	movl	%edx, %edi
	jmp	.L135
.LVL374:
	.p2align 4,,10
	.p2align 3
.L231:
	.loc 5 259 29 view .LVU1171
.LBE1796:
.LBE1811:
.LBE1814:
.LBE1851:
.LBB1852:
.LBB1850:
.LBB1849:
	.loc 5 301 43 view .LVU1172
	subl	%edx, %edi
.LVL375:
	.loc 5 299 21 view .LVU1173
	leal	1(%r15,%rdx), %r15d
.LVL376:
	.loc 5 300 29 view .LVU1174
	leal	2(%rsi,%rsi), %esi
.LVL377:
	.loc 5 301 29 view .LVU1175
	leal	-1(%rdi), %edx
.LVL378:
	.loc 5 301 29 view .LVU1176
.LBE1849:
	.loc 5 308 28 is_stmt 1 view .LVU1177
	testl	%edx, %edx
	jg	.L142
.L226:
	.loc 5 308 28 is_stmt 0 view .LVU1178
	movl	12(%rsp), %ebx
.LVL379:
	.loc 5 308 28 view .LVU1179
.LBE1850:
.LBE1852:
	.loc 4 43 9 discriminator 1 view .LVU1180
	cmpl	%r15d, %ebx
	je	.L144
	.loc 4 43 29 is_stmt 1 discriminator 2 view .LVU1181
.LVL380:
.LBB1853:
.LBI1853:
	.loc 11 662 5 view .LVU1182
.LBB1854:
	.loc 11 667 18 is_stmt 0 view .LVU1183
	movl	$7, %edx
	leaq	.LC6(%rip), %rsi
	movq	%rbp, %rdi
	call	_ZSt16__ostream_insertIcSt11char_traitsIcEERSt13basic_ostreamIT_T0_ES6_PKS3_l@PLT
.LVL381:
	.loc 11 667 18 view .LVU1184
.LBE1854:
.LBE1853:
.LBB1855:
.LBI1855:
	.loc 11 110 7 is_stmt 1 view .LVU1185
.LBB1856:
.LBI1856:
	.loc 11 735 5 view .LVU1186
.LBB1857:
	.loc 11 736 39 is_stmt 0 view .LVU1187
	movq	0(%rbp), %rax
	movq	-24(%rax), %rax
	movq	240(%rbp,%rax), %r15
.LVL382:
.LBB1858:
.LBI1858:
	.loc 12 449 7 is_stmt 1 view .LVU1188
.LBB1859:
.LBI1859:
	.loc 12 47 5 view .LVU1189
.LBB1860:
	.loc 12 49 7 is_stmt 0 view .LVU1190
	testq	%r15, %r15
	je	.L145
.LVL383:
	.loc 12 49 7 view .LVU1191
.LBE1860:
.LBE1859:
.LBB1861:
.LBI1861:
	.loc 1 880 7 is_stmt 1 view .LVU1192
.LBB1862:
	.loc 1 882 2 view .LVU1193
	cmpb	$0, 56(%r15)
	je	.L146
	.loc 1 883 4 view .LVU1194
.LBE1862:
.LBE1861:
.LBE1858:
	.loc 11 736 19 is_stmt 0 discriminator 1 view .LVU1195
	movsbl	67(%r15), %esi
.LVL384:
.L147:
	.loc 11 736 19 discriminator 1 view .LVU1196
	movq	%rbp, %rdi
	call	_ZNSo3putEc@PLT
.LVL385:
	movq	%rax, %rdi
.LVL386:
.LBB1867:
.LBI1867:
	.loc 11 757 5 is_stmt 1 view .LVU1197
.LBB1868:
	.loc 11 758 24 is_stmt 0 view .LVU1198
	call	_ZNSo5flushEv@PLT
.LVL387:
.L144:
	.loc 11 758 24 view .LVU1199
.LBE1868:
.LBE1867:
.LBE1857:
.LBE1856:
.LBE1855:
	.loc 4 44 9 is_stmt 1 view .LVU1200
	leal	20(%rbx), %edi
.LVL388:
.LBB1872:
.LBI1872:
	.loc 5 242 10 view .LVU1201
.LBB1873:
	.loc 5 243 9 is_stmt 0 view .LVU1202
	cmpl	$511, %edi
	ja	.L153
	.loc 5 245 13 view .LVU1203
	xorl	%esi, %esi
	.loc 5 244 13 view .LVU1204
	movl	$512, %edx
.LBB1874:
.LBB1875:
.LBB1876:
	.loc 5 34 9 view .LVU1205
	movl	$1, %r8d
	jmp	.L155
.LVL389:
	.p2align 4,,10
	.p2align 3
.L150:
	.loc 5 34 9 view .LVU1206
.LBE1876:
.LBE1875:
.LBB1882:
	.loc 5 259 29 view .LVU1207
	movl	%eax, %edx
.LVL390:
	.loc 5 258 29 view .LVU1208
	leal	1(%rsi,%rsi), %esi
.LVL391:
	.loc 5 258 29 view .LVU1209
.LBE1882:
.LBE1874:
	.loc 5 261 28 is_stmt 1 view .LVU1210
	testl	%edx, %edx
	jle	.L156
.LVL392:
.L155:
.LBB1899:
.LBB1895:
.LBI1875:
	.loc 5 28 19 view .LVU1211
.LBB1881:
	.loc 5 29 5 view .LVU1212
.LBB1877:
.LBI1877:
	.loc 5 10 19 view .LVU1213
.LBB1878:
	.loc 5 11 5 view .LVU1214
	.loc 5 11 16 is_stmt 0 view .LVU1215
	movl	%edx, %eax
.LBE1878:
.LBE1877:
	.loc 5 34 9 view .LVU1216
	movl	%r8d, %r9d
.LBB1880:
.LBB1879:
	.loc 5 11 16 view .LVU1217
	sarl	%eax
	.loc 5 11 7 view .LVU1218
	orl	%edx, %eax
.LVL393:
	.loc 5 12 5 is_stmt 1 view .LVU1219
	.loc 5 12 16 is_stmt 0 view .LVU1220
	movl	%eax, %ecx
	sarl	$2, %ecx
	.loc 5 12 7 view .LVU1221
	orl	%ecx, %eax
.LVL394:
	.loc 5 13 5 is_stmt 1 view .LVU1222
	.loc 5 13 16 is_stmt 0 view .LVU1223
	movl	%eax, %ecx
	sarl	$4, %ecx
	.loc 5 13 7 view .LVU1224
	orl	%ecx, %eax
.LVL395:
	.loc 5 14 5 is_stmt 1 view .LVU1225
	.loc 5 14 16 is_stmt 0 view .LVU1226
	movl	%eax, %ecx
	sarl	$8, %ecx
	.loc 5 14 7 view .LVU1227
	orl	%ecx, %eax
.LVL396:
	.loc 5 15 5 is_stmt 1 view .LVU1228
	.loc 5 15 16 is_stmt 0 view .LVU1229
	movl	%eax, %ecx
	sarl	$16, %ecx
	.loc 5 15 7 view .LVU1230
	orl	%ecx, %eax
.LVL397:
	.loc 5 16 5 is_stmt 1 view .LVU1231
	.loc 5 16 19 is_stmt 0 view .LVU1232
	movl	%eax, %ecx
	sarl	%ecx
	.loc 5 16 23 view .LVU1233
	subl	%ecx, %eax
.LVL398:
	.loc 5 16 23 view .LVU1234
.LBE1879:
.LBE1880:
	.loc 5 30 5 is_stmt 1 view .LVU1235
	.loc 5 30 9 is_stmt 0 view .LVU1236
	movl	%eax, %r11d
	.loc 5 32 21 view .LVU1237
	movl	%eax, %ecx
	.loc 5 30 9 view .LVU1238
	sarl	%r11d
.LVL399:
	.loc 5 32 5 is_stmt 1 view .LVU1239
	.loc 5 32 21 is_stmt 0 view .LVU1240
	andl	$-2, %ecx
	addl	%r11d, %ecx
	.loc 5 32 37 view .LVU1241
	cmpl	%edx, %ecx
	.loc 5 32 9 view .LVU1242
	setg	%cl
	.loc 5 32 37 view .LVU1243
	setg	%r10b
.LVL400:
	.loc 5 33 5 is_stmt 1 view .LVU1244
	.loc 5 34 5 view .LVU1245
	.loc 5 36 5 view .LVU1246
	.loc 5 32 9 is_stmt 0 view .LVU1247
	movzbl	%cl, %ecx
.LVL401:
	.loc 5 34 34 view .LVU1248
	addl	%ecx, %ecx
.LVL402:
	.loc 5 34 9 view .LVU1249
	subl	%ecx, %r9d
	.loc 5 36 62 view .LVU1250
	leal	-1(%rax), %ecx
	.loc 5 36 54 view .LVU1251
	movl	%r9d, %eax
.LVL403:
	.loc 5 36 54 view .LVU1252
	imull	%ecx, %eax
	.loc 5 36 35 view .LVU1253
	testb	%r10b, %r10b
	.loc 5 36 30 view .LVU1254
	leal	-1(%rdx,%r11), %ecx
.LVL404:
	.loc 5 36 35 view .LVU1255
	cmove	%r12d, %ecx
	.loc 5 36 9 view .LVU1256
	addl	%ecx, %eax
.LVL405:
	.loc 5 37 5 is_stmt 1 view .LVU1257
	.loc 5 37 5 is_stmt 0 view .LVU1258
.LBE1881:
.LBE1895:
.LBB1896:
	.loc 5 248 13 view .LVU1259
	cmpl	%eax, %edi
	jle	.L150
.LVL406:
.LBB1883:
.LBB1884:
.LBI1884:
	.loc 5 186 14 is_stmt 1 view .LVU1260
.LBB1885:
.LBB1886:
.LBB1887:
.LBB1888:
	.loc 6 505 24 is_stmt 0 view .LVU1261
.LBE1888:
.LBE1887:
.LBE1886:
	.loc 5 188 17 view .LVU1262
	movl	%esi, %ecx
	sarl	$31, %ecx
	shrl	$29, %ecx
	leal	(%rsi,%rcx), %r9d
	andl	$7, %r9d
	subl	%ecx, %r9d
	.loc 5 189 36 view .LVU1263
	movl	%r13d, %ecx
	subl	%r9d, %ecx
	.loc 5 189 30 view .LVU1264
	movl	%r8d, %r9d
	sall	%cl, %r9d
.LVL407:
.LBB1893:
.LBI1886:
	.loc 6 364 7 is_stmt 1 view .LVU1265
.LBB1891:
.LBI1887:
	.loc 6 498 7 view .LVU1266
.LBB1889:
	.loc 6 502 2 discriminator 2 view .LVU1267
	.loc 6 503 2 discriminator 2 view .LVU1268
.LBE1889:
.LBE1891:
.LBE1893:
	.loc 5 187 17 is_stmt 0 view .LVU1269
	testl	%esi, %esi
	leal	7(%rsi), %ecx
	cmovns	%esi, %ecx
	sarl	$3, %ecx
.LBB1894:
.LBB1892:
.LBB1890:
	.loc 6 505 25 view .LVU1270
	movslq	%ecx, %rcx
	.loc 6 505 24 view .LVU1271
	movzbl	16(%rsp,%rcx), %ecx
.LVL408:
	.loc 6 505 24 view .LVU1272
.LBE1890:
.LBE1892:
.LBE1894:
.LBE1885:
.LBE1884:
	.loc 5 250 17 view .LVU1273
	notl	%ecx
.LVL409:
	.loc 5 250 17 view .LVU1274
	testb	%r9b, %cl
	jne	.L156
	.loc 5 252 47 view .LVU1275
	subl	%eax, %edx
.LVL410:
	.loc 5 253 27 view .LVU1276
	subl	%eax, %edi
.LVL411:
	.loc 5 251 33 view .LVU1277
	leal	2(%rsi,%rsi), %esi
.LVL412:
	.loc 5 252 33 view .LVU1278
	subl	$1, %edx
.LVL413:
	.loc 5 253 23 view .LVU1279
	subl	$1, %edi
.LVL414:
	.loc 5 253 23 view .LVU1280
.LBE1883:
.LBE1896:
.LBE1899:
	.loc 5 261 28 is_stmt 1 view .LVU1281
	testl	%edx, %edx
	jg	.L155
.LVL415:
.L156:
	.loc 5 263 27 view .LVU1282
.LBB1900:
.LBB1901:
.LBB1902:
	.loc 5 198 43 is_stmt 0 view .LVU1283
	movl	$1, %edi
.LVL416:
	.loc 5 198 43 view .LVU1284
.LBE1902:
.LBE1901:
.LBE1900:
	.loc 5 263 27 view .LVU1285
	testl	%esi, %esi
	jg	.L152
	.loc 5 263 27 view .LVU1286
	jmp	.L153
.LVL417:
	.p2align 4,,10
	.p2align 3
.L157:
	.loc 5 263 27 is_stmt 1 view .LVU1287
	testl	%esi, %esi
	je	.L153
.LVL418:
.L152:
.LBB1910:
	.loc 5 264 39 is_stmt 0 view .LVU1288
	leal	-1(%rsi), %eax
	movl	%esi, %edx
	.loc 5 264 17 view .LVU1289
	movl	%eax, %esi
.LVL419:
	.loc 5 264 17 view .LVU1290
	sarl	%esi
.LVL420:
	.loc 5 265 13 view .LVU1291
	andl	$1, %edx
.LVL421:
	.loc 5 265 13 view .LVU1292
	je	.L157
.LVL422:
.LBB1909:
.LBI1901:
	.loc 5 195 14 is_stmt 1 view .LVU1293
.LBB1908:
.LBB1903:
.LBI1903:
	.loc 6 653 7 view .LVU1294
.LBE1903:
	.loc 5 198 43 is_stmt 0 view .LVU1295
	movl	%esi, %ecx
	movl	%edi, %edx
	.loc 5 196 17 view .LVU1296
	sarl	$4, %eax
.LVL423:
	.loc 5 198 43 view .LVU1297
	notl	%ecx
.LBB1906:
.LBB1904:
	.loc 6 655 35 view .LVU1298
	cltq
	.loc 6 655 35 view .LVU1299
.LBE1904:
.LBE1906:
	.loc 5 198 43 view .LVU1300
	andl	$7, %ecx
	sall	%cl, %edx
	.loc 5 198 21 view .LVU1301
	notl	%edx
.LBB1907:
.LBB1905:
	.loc 6 655 34 view .LVU1302
	lock andb	%dl, 16(%rsp,%rax)
.LVL424:
	.loc 6 655 34 view .LVU1303
.LBE1905:
.LBE1907:
.LBE1908:
.LBE1909:
.LBE1910:
	.loc 5 263 27 is_stmt 1 view .LVU1304
	testl	%esi, %esi
	jne	.L152
.LVL425:
	.p2align 4,,10
	.p2align 3
.L153:
	.loc 5 263 27 is_stmt 0 view .LVU1305
	movl	%ebx, 12(%rsp)
.LVL426:
.LBB1911:
.LBB1897:
	.loc 5 259 29 view .LVU1306
	xorl	%r15d, %r15d
	movl	$512, %edi
	xorl	%esi, %esi
.LBE1897:
.LBE1911:
.LBE1873:
.LBE1872:
.LBB1914:
.LBB1915:
.LBB1916:
.LBB1917:
.LBB1918:
	.loc 5 189 30 view .LVU1307
	movl	$1, %r10d
.LVL427:
	.p2align 4,,10
	.p2align 3
.L149:
	.loc 5 189 30 view .LVU1308
.LBE1918:
.LBI1917:
	.loc 5 186 14 is_stmt 1 view .LVU1309
.LBB1931:
.LBB1919:
.LBB1920:
.LBB1921:
	.loc 6 505 24 is_stmt 0 view .LVU1310
.LBE1921:
.LBE1920:
.LBE1919:
	.loc 5 188 17 view .LVU1311
	movl	%esi, %edx
	.loc 5 189 36 view .LVU1312
	movl	%r13d, %ecx
	.loc 5 189 30 view .LVU1313
	movl	%r10d, %r11d
	.loc 5 188 17 view .LVU1314
	sarl	$31, %edx
	shrl	$29, %edx
	leal	(%rsi,%rdx), %eax
	andl	$7, %eax
	subl	%edx, %eax
	.loc 5 189 36 view .LVU1315
	subl	%eax, %ecx
	.loc 5 187 17 view .LVU1316
	leal	7(%rsi), %eax
	.loc 5 189 30 view .LVU1317
	sall	%cl, %r11d
.LVL428:
.LBB1928:
.LBI1919:
	.loc 6 364 7 is_stmt 1 view .LVU1318
.LBB1925:
.LBI1920:
	.loc 6 498 7 view .LVU1319
.LBB1922:
	.loc 6 502 2 discriminator 2 view .LVU1320
	.loc 6 503 2 discriminator 2 view .LVU1321
.LBE1922:
.LBE1925:
.LBE1928:
	.loc 5 187 17 is_stmt 0 view .LVU1322
	testl	%esi, %esi
	cmovns	%esi, %eax
	sarl	$3, %eax
.LBB1929:
.LBB1926:
.LBB1923:
	.loc 6 505 25 view .LVU1323
	cltq
	.loc 6 505 24 view .LVU1324
	movzbl	16(%rsp,%rax), %ecx
.LBE1923:
.LBE1926:
.LBE1929:
.LBE1931:
.LBE1917:
.LBB1933:
.LBB1934:
.LBB1935:
.LBB1936:
	.loc 5 11 16 view .LVU1325
	movl	%edi, %eax
.LBE1936:
.LBE1935:
.LBE1934:
.LBE1933:
.LBB1943:
.LBB1932:
.LBB1930:
.LBB1927:
.LBB1924:
	.loc 6 505 24 view .LVU1326
.LVL429:
	.loc 6 505 24 view .LVU1327
.LBE1924:
.LBE1927:
.LBE1930:
.LBE1932:
.LBE1943:
.LBB1944:
.LBI1933:
	.loc 5 28 19 is_stmt 1 view .LVU1328
.LBB1941:
	.loc 5 29 5 view .LVU1329
.LBB1939:
.LBI1935:
	.loc 5 10 19 view .LVU1330
.LBB1937:
	.loc 5 11 5 view .LVU1331
	.loc 5 11 16 is_stmt 0 view .LVU1332
	sarl	%eax
	.loc 5 11 7 view .LVU1333
	orl	%edi, %eax
.LVL430:
	.loc 5 12 5 is_stmt 1 view .LVU1334
.LBE1937:
.LBE1939:
.LBE1941:
.LBE1944:
	.loc 5 296 13 is_stmt 0 view .LVU1335
	notl	%ecx
.LVL431:
.LBB1945:
.LBB1942:
.LBB1940:
.LBB1938:
	.loc 5 12 16 view .LVU1336
	movl	%eax, %edx
	sarl	$2, %edx
	.loc 5 12 7 view .LVU1337
	orl	%edx, %eax
.LVL432:
	.loc 5 13 5 is_stmt 1 view .LVU1338
	.loc 5 13 16 is_stmt 0 view .LVU1339
	movl	%eax, %edx
	sarl	$4, %edx
	.loc 5 13 7 view .LVU1340
	orl	%edx, %eax
.LVL433:
	.loc 5 14 5 is_stmt 1 view .LVU1341
	.loc 5 14 16 is_stmt 0 view .LVU1342
	movl	%eax, %edx
	sarl	$8, %edx
	.loc 5 14 7 view .LVU1343
	orl	%edx, %eax
.LVL434:
	.loc 5 15 5 is_stmt 1 view .LVU1344
	.loc 5 15 16 is_stmt 0 view .LVU1345
	movl	%eax, %edx
	sarl	$16, %edx
	.loc 5 15 7 view .LVU1346
	orl	%edx, %eax
.LVL435:
	.loc 5 16 5 is_stmt 1 view .LVU1347
	.loc 5 16 19 is_stmt 0 view .LVU1348
	movl	%eax, %edx
	sarl	%edx
	.loc 5 16 23 view .LVU1349
	subl	%edx, %eax
.LVL436:
	.loc 5 16 23 view .LVU1350
.LBE1938:
.LBE1940:
	.loc 5 30 5 is_stmt 1 view .LVU1351
	.loc 5 30 9 is_stmt 0 view .LVU1352
	movl	%eax, %r9d
	.loc 5 32 21 view .LVU1353
	movl	%eax, %edx
	.loc 5 30 9 view .LVU1354
	sarl	%r9d
.LVL437:
	.loc 5 32 5 is_stmt 1 view .LVU1355
	.loc 5 32 21 is_stmt 0 view .LVU1356
	andl	$-2, %edx
	addl	%r9d, %edx
	.loc 5 32 37 view .LVU1357
	cmpl	%edi, %edx
	.loc 5 34 9 view .LVU1358
	movl	%r10d, %edx
	.loc 5 32 9 view .LVU1359
	setg	%r8b
	.loc 5 32 37 view .LVU1360
	setg	%bl
.LVL438:
	.loc 5 33 5 is_stmt 1 view .LVU1361
	.loc 5 34 5 view .LVU1362
	.loc 5 36 5 view .LVU1363
	.loc 5 36 62 is_stmt 0 view .LVU1364
	subl	$1, %eax
.LVL439:
	.loc 5 32 9 view .LVU1365
	movzbl	%r8b, %r8d
.LVL440:
	.loc 5 34 34 view .LVU1366
	addl	%r8d, %r8d
.LVL441:
	.loc 5 34 9 view .LVU1367
	subl	%r8d, %edx
	.loc 5 36 54 view .LVU1368
	imull	%eax, %edx
	.loc 5 36 35 view .LVU1369
	testb	%bl, %bl
	.loc 5 36 30 view .LVU1370
	leal	-1(%rdi,%r9), %eax
.LVL442:
	.loc 5 36 35 view .LVU1371
	cmove	%r12d, %eax
	.loc 5 36 9 view .LVU1372
	addl	%eax, %edx
.LVL443:
	.loc 5 37 5 is_stmt 1 view .LVU1373
	.loc 5 37 5 is_stmt 0 view .LVU1374
.LBE1942:
.LBE1945:
	.loc 5 296 13 view .LVU1375
	testb	%r11b, %cl
	je	.L232
	.loc 5 305 29 view .LVU1376
	leal	1(%rsi,%rsi), %esi
.LVL444:
	.loc 5 305 29 view .LVU1377
.LBE1916:
	.loc 5 308 28 is_stmt 1 view .LVU1378
	testl	%edx, %edx
	jle	.L227
.LVL445:
.L159:
	.loc 5 308 28 is_stmt 0 view .LVU1379
.LBE1915:
.LBE1914:
.LBB1948:
.LBB1913:
.LBB1912:
.LBB1898:
	.loc 5 259 29 view .LVU1380
	movl	%edx, %edi
	jmp	.L149
.LVL446:
	.p2align 4,,10
	.p2align 3
.L232:
	.loc 5 259 29 view .LVU1381
.LBE1898:
.LBE1912:
.LBE1913:
.LBE1948:
.LBB1949:
.LBB1947:
.LBB1946:
	.loc 5 301 43 view .LVU1382
	subl	%edx, %edi
.LVL447:
	.loc 5 299 21 view .LVU1383
	leal	1(%r15,%rdx), %r15d
.LVL448:
	.loc 5 300 29 view .LVU1384
	leal	2(%rsi,%rsi), %esi
.LVL449:
	.loc 5 301 29 view .LVU1385
	leal	-1(%rdi), %edx
.LVL450:
	.loc 5 301 29 view .LVU1386
.LBE1946:
	.loc 5 308 28 is_stmt 1 view .LVU1387
	testl	%edx, %edx
	jg	.L159
.L227:
	.loc 5 308 28 is_stmt 0 view .LVU1388
	movl	12(%rsp), %ebx
.LVL451:
	.loc 5 308 28 view .LVU1389
.LBE1947:
.LBE1949:
	.loc 4 45 9 discriminator 1 view .LVU1390
	cmpl	%r15d, %ebx
	je	.L161
	.loc 4 45 29 is_stmt 1 discriminator 2 view .LVU1391
.LVL452:
.LBB1950:
.LBI1950:
	.loc 11 662 5 view .LVU1392
.LBB1951:
	.loc 11 667 18 is_stmt 0 view .LVU1393
	movl	$7, %edx
	leaq	.LC6(%rip), %rsi
	movq	%rbp, %rdi
	call	_ZSt16__ostream_insertIcSt11char_traitsIcEERSt13basic_ostreamIT_T0_ES6_PKS3_l@PLT
.LVL453:
	.loc 11 667 18 view .LVU1394
.LBE1951:
.LBE1950:
.LBB1952:
.LBI1952:
	.loc 11 110 7 is_stmt 1 view .LVU1395
.LBB1953:
.LBI1953:
	.loc 11 735 5 view .LVU1396
.LBB1954:
	.loc 11 736 39 is_stmt 0 view .LVU1397
	movq	0(%rbp), %rax
	movq	-24(%rax), %rax
	movq	240(%rbp,%rax), %r15
.LVL454:
.LBB1955:
.LBI1955:
	.loc 12 449 7 is_stmt 1 view .LVU1398
.LBB1956:
.LBI1956:
	.loc 12 47 5 view .LVU1399
.LBB1957:
	.loc 12 49 7 is_stmt 0 view .LVU1400
	testq	%r15, %r15
	je	.L145
.LVL455:
	.loc 12 49 7 view .LVU1401
.LBE1957:
.LBE1956:
.LBB1958:
.LBI1958:
	.loc 1 880 7 is_stmt 1 view .LVU1402
.LBB1959:
	.loc 1 882 2 view .LVU1403
	cmpb	$0, 56(%r15)
	je	.L162
	.loc 1 883 4 view .LVU1404
.LBE1959:
.LBE1958:
.LBE1955:
	.loc 11 736 19 is_stmt 0 discriminator 1 view .LVU1405
	movsbl	67(%r15), %esi
.LVL456:
.L163:
	.loc 11 736 19 discriminator 1 view .LVU1406
	movq	%rbp, %rdi
	call	_ZNSo3putEc@PLT
.LVL457:
	movq	%rax, %rdi
.LVL458:
.LBB1964:
.LBI1964:
	.loc 11 757 5 is_stmt 1 view .LVU1407
.LBB1965:
	.loc 11 758 24 is_stmt 0 view .LVU1408
	call	_ZNSo5flushEv@PLT
.LVL459:
.L161:
	.loc 11 758 24 view .LVU1409
.LBE1965:
.LBE1964:
.LBE1954:
.LBE1953:
.LBE1952:
	.loc 4 46 9 is_stmt 1 view .LVU1410
.LBB1969:
.LBI1969:
	.loc 5 242 10 view .LVU1411
.LBB1970:
	.loc 5 243 9 is_stmt 0 view .LVU1412
	cmpl	$511, %r14d
	ja	.L169
.LBE1970:
.LBE1969:
	.loc 4 46 19 view .LVU1413
	movl	%r14d, %edi
.LBB2012:
.LBB2010:
	.loc 5 245 13 view .LVU1414
	xorl	%esi, %esi
	.loc 5 244 13 view .LVU1415
	movl	$512, %edx
.LBB1971:
.LBB1972:
.LBB1973:
	.loc 5 34 9 view .LVU1416
	movl	$1, %r8d
	jmp	.L171
.LVL460:
	.p2align 4,,10
	.p2align 3
.L166:
	.loc 5 34 9 view .LVU1417
.LBE1973:
.LBE1972:
.LBB1979:
	.loc 5 259 29 view .LVU1418
	movl	%eax, %edx
.LVL461:
	.loc 5 258 29 view .LVU1419
	leal	1(%rsi,%rsi), %esi
.LVL462:
	.loc 5 258 29 view .LVU1420
.LBE1979:
.LBE1971:
	.loc 5 261 28 is_stmt 1 view .LVU1421
	testl	%edx, %edx
	jle	.L172
.LVL463:
.L171:
.LBB1996:
.LBB1992:
.LBI1972:
	.loc 5 28 19 view .LVU1422
.LBB1978:
	.loc 5 29 5 view .LVU1423
.LBB1974:
.LBI1974:
	.loc 5 10 19 view .LVU1424
.LBB1975:
	.loc 5 11 5 view .LVU1425
	.loc 5 11 16 is_stmt 0 view .LVU1426
	movl	%edx, %eax
.LBE1975:
.LBE1974:
	.loc 5 34 9 view .LVU1427
	movl	%r8d, %r9d
.LBB1977:
.LBB1976:
	.loc 5 11 16 view .LVU1428
	sarl	%eax
	.loc 5 11 7 view .LVU1429
	orl	%edx, %eax
.LVL464:
	.loc 5 12 5 is_stmt 1 view .LVU1430
	.loc 5 12 16 is_stmt 0 view .LVU1431
	movl	%eax, %ecx
	sarl	$2, %ecx
	.loc 5 12 7 view .LVU1432
	orl	%ecx, %eax
.LVL465:
	.loc 5 13 5 is_stmt 1 view .LVU1433
	.loc 5 13 16 is_stmt 0 view .LVU1434
	movl	%eax, %ecx
	sarl	$4, %ecx
	.loc 5 13 7 view .LVU1435
	orl	%ecx, %eax
.LVL466:
	.loc 5 14 5 is_stmt 1 view .LVU1436
	.loc 5 14 16 is_stmt 0 view .LVU1437
	movl	%eax, %ecx
	sarl	$8, %ecx
	.loc 5 14 7 view .LVU1438
	orl	%ecx, %eax
.LVL467:
	.loc 5 15 5 is_stmt 1 view .LVU1439
	.loc 5 15 16 is_stmt 0 view .LVU1440
	movl	%eax, %ecx
	sarl	$16, %ecx
	.loc 5 15 7 view .LVU1441
	orl	%ecx, %eax
.LVL468:
	.loc 5 16 5 is_stmt 1 view .LVU1442
	.loc 5 16 19 is_stmt 0 view .LVU1443
	movl	%eax, %ecx
	sarl	%ecx
	.loc 5 16 23 view .LVU1444
	subl	%ecx, %eax
.LVL469:
	.loc 5 16 23 view .LVU1445
.LBE1976:
.LBE1977:
	.loc 5 30 5 is_stmt 1 view .LVU1446
	.loc 5 30 9 is_stmt 0 view .LVU1447
	movl	%eax, %r11d
	.loc 5 32 21 view .LVU1448
	movl	%eax, %ecx
	.loc 5 30 9 view .LVU1449
	sarl	%r11d
.LVL470:
	.loc 5 32 5 is_stmt 1 view .LVU1450
	.loc 5 32 21 is_stmt 0 view .LVU1451
	andl	$-2, %ecx
	addl	%r11d, %ecx
	.loc 5 32 37 view .LVU1452
	cmpl	%edx, %ecx
	.loc 5 32 9 view .LVU1453
	setg	%cl
	.loc 5 32 37 view .LVU1454
	setg	%r10b
.LVL471:
	.loc 5 33 5 is_stmt 1 view .LVU1455
	.loc 5 34 5 view .LVU1456
	.loc 5 36 5 view .LVU1457
	.loc 5 32 9 is_stmt 0 view .LVU1458
	movzbl	%cl, %ecx
.LVL472:
	.loc 5 34 34 view .LVU1459
	addl	%ecx, %ecx
.LVL473:
	.loc 5 34 9 view .LVU1460
	subl	%ecx, %r9d
	.loc 5 36 62 view .LVU1461
	leal	-1(%rax), %ecx
	.loc 5 36 54 view .LVU1462
	movl	%r9d, %eax
.LVL474:
	.loc 5 36 54 view .LVU1463
	imull	%ecx, %eax
	.loc 5 36 35 view .LVU1464
	testb	%r10b, %r10b
	.loc 5 36 30 view .LVU1465
	leal	-1(%rdx,%r11), %ecx
.LVL475:
	.loc 5 36 35 view .LVU1466
	cmove	%r12d, %ecx
	.loc 5 36 9 view .LVU1467
	addl	%ecx, %eax
.LVL476:
	.loc 5 37 5 is_stmt 1 view .LVU1468
	.loc 5 37 5 is_stmt 0 view .LVU1469
.LBE1978:
.LBE1992:
.LBB1993:
	.loc 5 248 13 view .LVU1470
	cmpl	%eax, %edi
	jle	.L166
.LVL477:
.LBB1980:
.LBB1981:
.LBI1981:
	.loc 5 186 14 is_stmt 1 view .LVU1471
.LBB1982:
.LBB1983:
.LBB1984:
.LBB1985:
	.loc 6 505 24 is_stmt 0 view .LVU1472
.LBE1985:
.LBE1984:
.LBE1983:
	.loc 5 188 17 view .LVU1473
	movl	%esi, %ecx
	sarl	$31, %ecx
	shrl	$29, %ecx
	leal	(%rsi,%rcx), %r9d
	andl	$7, %r9d
	subl	%ecx, %r9d
	.loc 5 189 36 view .LVU1474
	movl	%r13d, %ecx
	subl	%r9d, %ecx
	.loc 5 189 30 view .LVU1475
	movl	%r8d, %r9d
	sall	%cl, %r9d
.LVL478:
.LBB1990:
.LBI1983:
	.loc 6 364 7 is_stmt 1 view .LVU1476
.LBB1988:
.LBI1984:
	.loc 6 498 7 view .LVU1477
.LBB1986:
	.loc 6 502 2 discriminator 2 view .LVU1478
	.loc 6 503 2 discriminator 2 view .LVU1479
.LBE1986:
.LBE1988:
.LBE1990:
	.loc 5 187 17 is_stmt 0 view .LVU1480
	testl	%esi, %esi
	leal	7(%rsi), %ecx
	cmovns	%esi, %ecx
	sarl	$3, %ecx
.LBB1991:
.LBB1989:
.LBB1987:
	.loc 6 505 25 view .LVU1481
	movslq	%ecx, %rcx
	.loc 6 505 24 view .LVU1482
	movzbl	16(%rsp,%rcx), %ecx
.LVL479:
	.loc 6 505 24 view .LVU1483
.LBE1987:
.LBE1989:
.LBE1991:
.LBE1982:
.LBE1981:
	.loc 5 250 17 view .LVU1484
	notl	%ecx
.LVL480:
	.loc 5 250 17 view .LVU1485
	testb	%r9b, %cl
	jne	.L172
	.loc 5 252 47 view .LVU1486
	subl	%eax, %edx
.LVL481:
	.loc 5 253 27 view .LVU1487
	subl	%eax, %edi
.LVL482:
	.loc 5 251 33 view .LVU1488
	leal	2(%rsi,%rsi), %esi
.LVL483:
	.loc 5 252 33 view .LVU1489
	subl	$1, %edx
.LVL484:
	.loc 5 253 23 view .LVU1490
	subl	$1, %edi
.LVL485:
	.loc 5 253 23 view .LVU1491
.LBE1980:
.LBE1993:
.LBE1996:
	.loc 5 261 28 is_stmt 1 view .LVU1492
	testl	%edx, %edx
	jg	.L171
.LVL486:
.L172:
	.loc 5 263 27 view .LVU1493
.LBB1997:
.LBB1998:
.LBB1999:
	.loc 5 198 43 is_stmt 0 view .LVU1494
	movl	$1, %edi
.LVL487:
	.loc 5 198 43 view .LVU1495
.LBE1999:
.LBE1998:
.LBE1997:
	.loc 5 263 27 view .LVU1496
	testl	%esi, %esi
	jg	.L168
	.loc 5 263 27 view .LVU1497
	jmp	.L169
.LVL488:
	.p2align 4,,10
	.p2align 3
.L173:
	.loc 5 263 27 is_stmt 1 view .LVU1498
	testl	%esi, %esi
	je	.L169
.LVL489:
.L168:
.LBB2007:
	.loc 5 264 39 is_stmt 0 view .LVU1499
	leal	-1(%rsi), %eax
	movl	%esi, %edx
	.loc 5 264 17 view .LVU1500
	movl	%eax, %esi
.LVL490:
	.loc 5 264 17 view .LVU1501
	sarl	%esi
.LVL491:
	.loc 5 265 13 view .LVU1502
	andl	$1, %edx
.LVL492:
	.loc 5 265 13 view .LVU1503
	je	.L173
.LVL493:
.LBB2006:
.LBI1998:
	.loc 5 195 14 is_stmt 1 view .LVU1504
.LBB2005:
.LBB2000:
.LBI2000:
	.loc 6 653 7 view .LVU1505
.LBE2000:
	.loc 5 198 43 is_stmt 0 view .LVU1506
	movl	%esi, %ecx
	movl	%edi, %edx
	.loc 5 196 17 view .LVU1507
	sarl	$4, %eax
.LVL494:
	.loc 5 198 43 view .LVU1508
	notl	%ecx
.LBB2003:
.LBB2001:
	.loc 6 655 35 view .LVU1509
	cltq
	.loc 6 655 35 view .LVU1510
.LBE2001:
.LBE2003:
	.loc 5 198 43 view .LVU1511
	andl	$7, %ecx
	sall	%cl, %edx
	.loc 5 198 21 view .LVU1512
	notl	%edx
.LBB2004:
.LBB2002:
	.loc 6 655 34 view .LVU1513
	lock andb	%dl, 16(%rsp,%rax)
.LVL495:
	.loc 6 655 34 view .LVU1514
.LBE2002:
.LBE2004:
.LBE2005:
.LBE2006:
.LBE2007:
	.loc 5 263 27 is_stmt 1 view .LVU1515
	testl	%esi, %esi
	jne	.L168
.LVL496:
	.p2align 4,,10
	.p2align 3
.L169:
	.loc 5 263 27 is_stmt 0 view .LVU1516
	movl	%ebx, 12(%rsp)
.LBB2008:
.LBB1994:
	.loc 5 259 29 view .LVU1517
	xorl	%r15d, %r15d
	movl	$512, %edi
	xorl	%esi, %esi
.LBE1994:
.LBE2008:
.LBE2010:
.LBE2012:
.LBB2013:
.LBB2014:
.LBB2015:
.LBB2016:
.LBB2017:
	.loc 5 189 30 view .LVU1518
	movl	$1, %r10d
.LVL497:
	.p2align 4,,10
	.p2align 3
.L165:
	.loc 5 189 30 view .LVU1519
.LBE2017:
.LBI2016:
	.loc 5 186 14 is_stmt 1 view .LVU1520
.LBB2030:
.LBB2018:
.LBB2019:
.LBB2020:
	.loc 6 505 24 is_stmt 0 view .LVU1521
.LBE2020:
.LBE2019:
.LBE2018:
	.loc 5 188 17 view .LVU1522
	movl	%esi, %edx
	.loc 5 189 36 view .LVU1523
	movl	%r13d, %ecx
	.loc 5 189 30 view .LVU1524
	movl	%r10d, %r11d
	.loc 5 188 17 view .LVU1525
	sarl	$31, %edx
	shrl	$29, %edx
	leal	(%rsi,%rdx), %eax
	andl	$7, %eax
	subl	%edx, %eax
	.loc 5 189 36 view .LVU1526
	subl	%eax, %ecx
	.loc 5 187 17 view .LVU1527
	leal	7(%rsi), %eax
	.loc 5 189 30 view .LVU1528
	sall	%cl, %r11d
.LVL498:
.LBB2027:
.LBI2018:
	.loc 6 364 7 is_stmt 1 view .LVU1529
.LBB2024:
.LBI2019:
	.loc 6 498 7 view .LVU1530
.LBB2021:
	.loc 6 502 2 discriminator 2 view .LVU1531
	.loc 6 503 2 discriminator 2 view .LVU1532
.LBE2021:
.LBE2024:
.LBE2027:
	.loc 5 187 17 is_stmt 0 view .LVU1533
	testl	%esi, %esi
	cmovns	%esi, %eax
	sarl	$3, %eax
.LBB2028:
.LBB2025:
.LBB2022:
	.loc 6 505 25 view .LVU1534
	cltq
	.loc 6 505 24 view .LVU1535
	movzbl	16(%rsp,%rax), %ecx
.LBE2022:
.LBE2025:
.LBE2028:
.LBE2030:
.LBE2016:
.LBB2032:
.LBB2033:
.LBB2034:
.LBB2035:
	.loc 5 11 16 view .LVU1536
	movl	%edi, %eax
.LBE2035:
.LBE2034:
.LBE2033:
.LBE2032:
.LBB2042:
.LBB2031:
.LBB2029:
.LBB2026:
.LBB2023:
	.loc 6 505 24 view .LVU1537
.LVL499:
	.loc 6 505 24 view .LVU1538
.LBE2023:
.LBE2026:
.LBE2029:
.LBE2031:
.LBE2042:
.LBB2043:
.LBI2032:
	.loc 5 28 19 is_stmt 1 view .LVU1539
.LBB2040:
	.loc 5 29 5 view .LVU1540
.LBB2038:
.LBI2034:
	.loc 5 10 19 view .LVU1541
.LBB2036:
	.loc 5 11 5 view .LVU1542
	.loc 5 11 16 is_stmt 0 view .LVU1543
	sarl	%eax
	.loc 5 11 7 view .LVU1544
	orl	%edi, %eax
.LVL500:
	.loc 5 12 5 is_stmt 1 view .LVU1545
.LBE2036:
.LBE2038:
.LBE2040:
.LBE2043:
	.loc 5 296 13 is_stmt 0 view .LVU1546
	notl	%ecx
.LVL501:
.LBB2044:
.LBB2041:
.LBB2039:
.LBB2037:
	.loc 5 12 16 view .LVU1547
	movl	%eax, %edx
	sarl	$2, %edx
	.loc 5 12 7 view .LVU1548
	orl	%edx, %eax
.LVL502:
	.loc 5 13 5 is_stmt 1 view .LVU1549
	.loc 5 13 16 is_stmt 0 view .LVU1550
	movl	%eax, %edx
	sarl	$4, %edx
	.loc 5 13 7 view .LVU1551
	orl	%edx, %eax
.LVL503:
	.loc 5 14 5 is_stmt 1 view .LVU1552
	.loc 5 14 16 is_stmt 0 view .LVU1553
	movl	%eax, %edx
	sarl	$8, %edx
	.loc 5 14 7 view .LVU1554
	orl	%edx, %eax
.LVL504:
	.loc 5 15 5 is_stmt 1 view .LVU1555
	.loc 5 15 16 is_stmt 0 view .LVU1556
	movl	%eax, %edx
	sarl	$16, %edx
	.loc 5 15 7 view .LVU1557
	orl	%edx, %eax
.LVL505:
	.loc 5 16 5 is_stmt 1 view .LVU1558
	.loc 5 16 19 is_stmt 0 view .LVU1559
	movl	%eax, %edx
	sarl	%edx
	.loc 5 16 23 view .LVU1560
	subl	%edx, %eax
.LVL506:
	.loc 5 16 23 view .LVU1561
.LBE2037:
.LBE2039:
	.loc 5 30 5 is_stmt 1 view .LVU1562
	.loc 5 30 9 is_stmt 0 view .LVU1563
	movl	%eax, %r9d
	.loc 5 32 21 view .LVU1564
	movl	%eax, %edx
	.loc 5 30 9 view .LVU1565
	sarl	%r9d
.LVL507:
	.loc 5 32 5 is_stmt 1 view .LVU1566
	.loc 5 32 21 is_stmt 0 view .LVU1567
	andl	$-2, %edx
	addl	%r9d, %edx
	.loc 5 32 37 view .LVU1568
	cmpl	%edi, %edx
	.loc 5 34 9 view .LVU1569
	movl	%r10d, %edx
	.loc 5 32 9 view .LVU1570
	setg	%r8b
	.loc 5 32 37 view .LVU1571
	setg	%bl
.LVL508:
	.loc 5 33 5 is_stmt 1 view .LVU1572
	.loc 5 34 5 view .LVU1573
	.loc 5 36 5 view .LVU1574
	.loc 5 36 62 is_stmt 0 view .LVU1575
	subl	$1, %eax
.LVL509:
	.loc 5 32 9 view .LVU1576
	movzbl	%r8b, %r8d
.LVL510:
	.loc 5 34 34 view .LVU1577
	addl	%r8d, %r8d
.LVL511:
	.loc 5 34 9 view .LVU1578
	subl	%r8d, %edx
	.loc 5 36 54 view .LVU1579
	imull	%eax, %edx
	.loc 5 36 35 view .LVU1580
	testb	%bl, %bl
	.loc 5 36 30 view .LVU1581
	leal	-1(%rdi,%r9), %eax
.LVL512:
	.loc 5 36 35 view .LVU1582
	cmove	%r12d, %eax
	.loc 5 36 9 view .LVU1583
	addl	%eax, %edx
.LVL513:
	.loc 5 37 5 is_stmt 1 view .LVU1584
	.loc 5 37 5 is_stmt 0 view .LVU1585
.LBE2041:
.LBE2044:
	.loc 5 296 13 view .LVU1586
	testb	%r11b, %cl
	je	.L233
	.loc 5 305 29 view .LVU1587
	leal	1(%rsi,%rsi), %esi
.LVL514:
	.loc 5 305 29 view .LVU1588
.LBE2015:
	.loc 5 308 28 is_stmt 1 view .LVU1589
	testl	%edx, %edx
	jle	.L228
.LVL515:
.L175:
	.loc 5 308 28 is_stmt 0 view .LVU1590
.LBE2014:
.LBE2013:
.LBB2047:
.LBB2011:
.LBB2009:
.LBB1995:
	.loc 5 259 29 view .LVU1591
	movl	%edx, %edi
	jmp	.L165
.LVL516:
	.p2align 4,,10
	.p2align 3
.L233:
	.loc 5 259 29 view .LVU1592
.LBE1995:
.LBE2009:
.LBE2011:
.LBE2047:
.LBB2048:
.LBB2046:
.LBB2045:
	.loc 5 301 43 view .LVU1593
	subl	%edx, %edi
.LVL517:
	.loc 5 299 21 view .LVU1594
	leal	1(%r15,%rdx), %r15d
.LVL518:
	.loc 5 300 29 view .LVU1595
	leal	2(%rsi,%rsi), %esi
.LVL519:
	.loc 5 301 29 view .LVU1596
	leal	-1(%rdi), %edx
.LVL520:
	.loc 5 301 29 view .LVU1597
.LBE2045:
	.loc 5 308 28 is_stmt 1 view .LVU1598
	testl	%edx, %edx
	jg	.L175
.L228:
	.loc 5 308 28 is_stmt 0 view .LVU1599
	movl	12(%rsp), %ebx
.LVL521:
	.loc 5 308 28 view .LVU1600
.LBE2046:
.LBE2048:
	.loc 4 47 9 discriminator 1 view .LVU1601
	cmpl	%r15d, %ebx
	je	.L177
	.loc 4 47 29 is_stmt 1 discriminator 2 view .LVU1602
.LVL522:
.LBB2049:
.LBI2049:
	.loc 11 662 5 view .LVU1603
.LBB2050:
	.loc 11 667 18 is_stmt 0 view .LVU1604
	movl	$7, %edx
	leaq	.LC6(%rip), %rsi
	movq	%rbp, %rdi
	call	_ZSt16__ostream_insertIcSt11char_traitsIcEERSt13basic_ostreamIT_T0_ES6_PKS3_l@PLT
.LVL523:
	.loc 11 667 18 view .LVU1605
.LBE2050:
.LBE2049:
.LBB2051:
.LBI2051:
	.loc 11 110 7 is_stmt 1 view .LVU1606
.LBB2052:
.LBI2052:
	.loc 11 735 5 view .LVU1607
.LBB2053:
	.loc 11 736 39 is_stmt 0 view .LVU1608
	movq	0(%rbp), %rax
	movq	-24(%rax), %rax
	movq	240(%rbp,%rax), %r15
.LVL524:
.LBB2054:
.LBI2054:
	.loc 12 449 7 is_stmt 1 view .LVU1609
.LBB2055:
.LBI2055:
	.loc 12 47 5 view .LVU1610
.LBB2056:
	.loc 12 49 7 is_stmt 0 view .LVU1611
	testq	%r15, %r15
	je	.L145
.LVL525:
	.loc 12 49 7 view .LVU1612
.LBE2056:
.LBE2055:
.LBB2057:
.LBI2057:
	.loc 1 880 7 is_stmt 1 view .LVU1613
.LBB2058:
	.loc 1 882 2 view .LVU1614
	cmpb	$0, 56(%r15)
	je	.L178
	.loc 1 883 4 view .LVU1615
.LBE2058:
.LBE2057:
.LBE2054:
	.loc 11 736 19 is_stmt 0 discriminator 1 view .LVU1616
	movsbl	67(%r15), %esi
.LVL526:
.L179:
	.loc 11 736 19 discriminator 1 view .LVU1617
	movq	%rbp, %rdi
	call	_ZNSo3putEc@PLT
.LVL527:
	movq	%rax, %rdi
.LVL528:
.LBB2063:
.LBI2063:
	.loc 11 757 5 is_stmt 1 view .LVU1618
.LBB2064:
	.loc 11 758 24 is_stmt 0 view .LVU1619
	call	_ZNSo5flushEv@PLT
.LVL529:
.L177:
	.loc 11 758 24 view .LVU1620
.LBE2064:
.LBE2063:
.LBE2053:
.LBE2052:
.LBE2051:
	.loc 4 41 5 is_stmt 1 discriminator 2 view .LVU1621
	subl	$1, %ebx
.LVL530:
	.loc 4 41 24 discriminator 1 view .LVU1622
	subl	$1, %r14d
	cmpl	$-1, %ebx
	jne	.L180
.LBE2074:
	.loc 4 49 1 is_stmt 0 view .LVU1623
	movq	88(%rsp), %rax
	subq	%fs:40, %rax
	jne	.L229
	addq	$104, %rsp
	.cfi_remember_state
	.cfi_def_cfa_offset 56
	popq	%rbx
	.cfi_def_cfa_offset 48
.LVL531:
	.loc 4 49 1 view .LVU1624
	popq	%rbp
	.cfi_def_cfa_offset 40
	popq	%r12
	.cfi_def_cfa_offset 32
	popq	%r13
	.cfi_def_cfa_offset 24
	popq	%r14
	.cfi_def_cfa_offset 16
	popq	%r15
	.cfi_def_cfa_offset 8
	ret
.LVL532:
	.p2align 4,,10
	.p2align 3
.L162:
	.cfi_restore_state
.LBB2075:
.LBB2068:
.LBB1968:
.LBB1967:
.LBB1966:
.LBB1963:
.LBB1962:
.LBB1960:
.LBI1960:
	.loc 1 880 7 is_stmt 1 view .LVU1625
.LBB1961:
	.loc 1 884 2 view .LVU1626
	.loc 1 884 21 is_stmt 0 view .LVU1627
	movq	%r15, %rdi
	call	_ZNKSt5ctypeIcE13_M_widen_initEv@PLT
.LVL533:
	.loc 1 885 2 is_stmt 1 view .LVU1628
	.loc 1 885 23 is_stmt 0 view .LVU1629
	movq	(%r15), %rax
	movl	$10, %esi
	leaq	_ZNKSt5ctypeIcE8do_widenEc(%rip), %rdx
	movq	48(%rax), %rax
	cmpq	%rdx, %rax
	je	.L163
	movq	%r15, %rdi
	call	*%rax
.LVL534:
.LBE1961:
.LBE1960:
.LBE1962:
.LBE1963:
.LBE1966:
	.loc 11 736 19 discriminator 1 view .LVU1630
	movsbl	%al, %esi
	jmp	.L163
.LVL535:
	.p2align 4,,10
	.p2align 3
.L146:
	.loc 11 736 19 discriminator 1 view .LVU1631
.LBE1967:
.LBE1968:
.LBE2068:
.LBB2069:
.LBB1871:
.LBB1870:
.LBB1869:
.LBB1866:
.LBB1865:
.LBB1863:
.LBI1863:
	.loc 1 880 7 is_stmt 1 view .LVU1632
.LBB1864:
	.loc 1 884 2 view .LVU1633
	.loc 1 884 21 is_stmt 0 view .LVU1634
	movq	%r15, %rdi
	call	_ZNKSt5ctypeIcE13_M_widen_initEv@PLT
.LVL536:
	.loc 1 885 2 is_stmt 1 view .LVU1635
	.loc 1 885 23 is_stmt 0 view .LVU1636
	movq	(%r15), %rax
	movl	$10, %esi
	leaq	_ZNKSt5ctypeIcE8do_widenEc(%rip), %rdx
	movq	48(%rax), %rax
	cmpq	%rdx, %rax
	je	.L147
	movq	%r15, %rdi
	call	*%rax
.LVL537:
.LBE1864:
.LBE1863:
.LBE1865:
.LBE1866:
.LBE1869:
	.loc 11 736 19 discriminator 1 view .LVU1637
	movsbl	%al, %esi
	jmp	.L147
.LVL538:
	.p2align 4,,10
	.p2align 3
.L178:
	.loc 11 736 19 discriminator 1 view .LVU1638
.LBE1870:
.LBE1871:
.LBE2069:
.LBB2070:
.LBB2067:
.LBB2066:
.LBB2065:
.LBB2062:
.LBB2061:
.LBB2059:
.LBI2059:
	.loc 1 880 7 is_stmt 1 view .LVU1639
.LBB2060:
	.loc 1 884 2 view .LVU1640
	.loc 1 884 21 is_stmt 0 view .LVU1641
	movq	%r15, %rdi
	call	_ZNKSt5ctypeIcE13_M_widen_initEv@PLT
.LVL539:
	.loc 1 885 2 is_stmt 1 view .LVU1642
	.loc 1 885 23 is_stmt 0 view .LVU1643
	movq	(%r15), %rax
	movl	$10, %esi
	leaq	_ZNKSt5ctypeIcE8do_widenEc(%rip), %rdx
	movq	48(%rax), %rax
	cmpq	%rdx, %rax
	je	.L179
	movq	%r15, %rdi
	call	*%rax
.LVL540:
.LBE2060:
.LBE2059:
.LBE2061:
.LBE2062:
.LBE2065:
	.loc 11 736 19 discriminator 1 view .LVU1644
	movsbl	%al, %esi
	jmp	.L179
.LVL541:
.L130:
	.loc 11 736 19 discriminator 1 view .LVU1645
.LBE2066:
.LBE2067:
.LBE2070:
.LBE2075:
.LBB2076:
.LBB1764:
.LBB1761:
.LBB1757:
.LBB1751:
.LBB1750:
.LBB1748:
.LBI1748:
	.loc 1 880 7 is_stmt 1 view .LVU1646
.LBB1749:
	.loc 1 884 2 view .LVU1647
	.loc 1 884 21 is_stmt 0 view .LVU1648
	movq	%rbx, %rdi
	call	_ZNKSt5ctypeIcE13_M_widen_initEv@PLT
.LVL542:
	.loc 1 885 2 is_stmt 1 view .LVU1649
	.loc 1 885 23 is_stmt 0 view .LVU1650
	movq	(%rbx), %rax
	movl	$10, %esi
	leaq	_ZNKSt5ctypeIcE8do_widenEc(%rip), %rdx
	movq	48(%rax), %rax
	cmpq	%rdx, %rax
	je	.L131
	movq	%rbx, %rdi
	call	*%rax
.LVL543:
.LBE1749:
.LBE1748:
.LBE1750:
.LBE1751:
.LBE1757:
	.loc 11 736 19 discriminator 1 view .LVU1651
	movsbl	%al, %esi
	jmp	.L131
.LVL544:
.L145:
.LBB1758:
.LBB1752:
.LBB1745:
	.loc 12 50 18 view .LVU1652
	movq	88(%rsp), %rax
	subq	%fs:40, %rax
	jne	.L229
	call	_ZSt16__throw_bad_castv@PLT
.LVL545:
.L229:
.LBE1745:
.LBE1752:
.LBE1758:
.LBE1761:
.LBE1764:
.LBE2076:
	.loc 4 49 1 view .LVU1653
	call	__stack_chk_fail@PLT
.LVL546:
	.cfi_endproc
.LFE2696:
	.size	_Z8regTest2v, .-_Z8regTest2v
	.section	.rodata._Z12writeAndReadILi80EEbR14BoundedMinReg2IXT_EEii.str1.1,"aMS",@progbits,1
.LC7:
	.string	"Min reg value after writing "
.LC8:
	.string	": "
.LC9:
	.string	", expected "
.LC10:
	.string	"."
	.section	.text._Z12writeAndReadILi80EEbR14BoundedMinReg2IXT_EEii,"axG",@progbits,_Z12writeAndReadILi80EEbR14BoundedMinReg2IXT_EEii,comdat
	.p2align 4
	.weak	_Z12writeAndReadILi80EEbR14BoundedMinReg2IXT_EEii
	.type	_Z12writeAndReadILi80EEbR14BoundedMinReg2IXT_EEii, @function
_Z12writeAndReadILi80EEbR14BoundedMinReg2IXT_EEii:
.LVL547:
.LFB3080:
	.loc 4 51 6 is_stmt 1 view -0
	.cfi_startproc
	.cfi_personality 0x9b,DW.ref.__gxx_personality_v0
	.cfi_lsda 0x1b,.LLSDA3080
	.loc 4 51 6 is_stmt 0 view .LVU1655
	pushq	%r15
	.cfi_def_cfa_offset 16
	.cfi_offset 15, -16
	movq	%rdi, %r11
	movl	%edx, %r15d
	pushq	%r14
	.cfi_def_cfa_offset 24
	.cfi_offset 14, -24
	pushq	%r13
	.cfi_def_cfa_offset 32
	.cfi_offset 13, -32
	pushq	%r12
	.cfi_def_cfa_offset 40
	.cfi_offset 12, -40
	pushq	%rbp
	.cfi_def_cfa_offset 48
	.cfi_offset 6, -48
	movl	%esi, %ebp
	pushq	%rbx
	.cfi_def_cfa_offset 56
	.cfi_offset 3, -56
	subq	$296, %rsp
	.cfi_def_cfa_offset 352
	.loc 4 51 6 view .LVU1656
	movq	%fs:40, %rax
	movq	%rax, 280(%rsp)
	xorl	%eax, %eax
.LVL548:
.LBB2220:
.LBI2220:
	.loc 5 242 10 is_stmt 1 view .LVU1657
.LBB2221:
	.loc 5 243 9 is_stmt 0 view .LVU1658
	cmpl	$639, %esi
	ja	.L240
	movl	%esi, %edi
.LVL549:
	.loc 5 244 13 view .LVU1659
	movl	$640, %edx
.LVL550:
	.loc 5 245 13 view .LVU1660
	xorl	%esi, %esi
.LVL551:
.LBB2222:
.LBB2223:
.LBB2224:
	.loc 5 34 9 view .LVU1661
	movl	$1, %r8d
	.loc 5 36 35 view .LVU1662
	xorl	%r9d, %r9d
.LBE2224:
.LBE2223:
.LBB2230:
.LBB2231:
.LBB2232:
.LBB2233:
	.loc 5 189 36 view .LVU1663
	movl	$7, %r10d
	jmp	.L235
.LVL552:
	.p2align 4,,10
	.p2align 3
.L237:
	.loc 5 189 36 view .LVU1664
.LBE2233:
.LBE2232:
.LBE2231:
	.loc 5 259 29 view .LVU1665
	movl	%eax, %edx
.LVL553:
	.loc 5 258 29 view .LVU1666
	leal	1(%rsi,%rsi), %esi
.LVL554:
	.loc 5 258 29 view .LVU1667
.LBE2230:
.LBE2222:
	.loc 5 261 28 is_stmt 1 view .LVU1668
	testl	%edx, %edx
	jle	.L242
.LVL555:
.L235:
.LBB2250:
.LBB2246:
.LBI2223:
	.loc 5 28 19 view .LVU1669
.LBB2229:
	.loc 5 29 5 view .LVU1670
.LBB2225:
.LBI2225:
	.loc 5 10 19 view .LVU1671
.LBB2226:
	.loc 5 11 5 view .LVU1672
	.loc 5 11 16 is_stmt 0 view .LVU1673
	movl	%edx, %eax
.LBE2226:
.LBE2225:
	.loc 5 34 9 view .LVU1674
	movl	%r8d, %ebx
.LBB2228:
.LBB2227:
	.loc 5 11 16 view .LVU1675
	sarl	%eax
	.loc 5 11 7 view .LVU1676
	orl	%edx, %eax
.LVL556:
	.loc 5 12 5 is_stmt 1 view .LVU1677
	.loc 5 12 16 is_stmt 0 view .LVU1678
	movl	%eax, %ecx
	sarl	$2, %ecx
	.loc 5 12 7 view .LVU1679
	orl	%ecx, %eax
.LVL557:
	.loc 5 13 5 is_stmt 1 view .LVU1680
	.loc 5 13 16 is_stmt 0 view .LVU1681
	movl	%eax, %ecx
	sarl	$4, %ecx
	.loc 5 13 7 view .LVU1682
	orl	%ecx, %eax
.LVL558:
	.loc 5 14 5 is_stmt 1 view .LVU1683
	.loc 5 14 16 is_stmt 0 view .LVU1684
	movl	%eax, %ecx
	sarl	$8, %ecx
	.loc 5 14 7 view .LVU1685
	orl	%ecx, %eax
.LVL559:
	.loc 5 15 5 is_stmt 1 view .LVU1686
	.loc 5 15 16 is_stmt 0 view .LVU1687
	movl	%eax, %ecx
	sarl	$16, %ecx
	.loc 5 15 7 view .LVU1688
	orl	%ecx, %eax
.LVL560:
	.loc 5 16 5 is_stmt 1 view .LVU1689
	.loc 5 16 19 is_stmt 0 view .LVU1690
	movl	%eax, %ecx
	sarl	%ecx
	.loc 5 16 23 view .LVU1691
	subl	%ecx, %eax
.LVL561:
	.loc 5 16 23 view .LVU1692
.LBE2227:
.LBE2228:
	.loc 5 30 5 is_stmt 1 view .LVU1693
	.loc 5 30 9 is_stmt 0 view .LVU1694
	movl	%eax, %r13d
	.loc 5 32 21 view .LVU1695
	movl	%eax, %ecx
	.loc 5 30 9 view .LVU1696
	sarl	%r13d
.LVL562:
	.loc 5 32 5 is_stmt 1 view .LVU1697
	.loc 5 32 21 is_stmt 0 view .LVU1698
	andl	$-2, %ecx
	addl	%r13d, %ecx
	.loc 5 32 37 view .LVU1699
	cmpl	%edx, %ecx
	.loc 5 32 9 view .LVU1700
	setg	%cl
	.loc 5 32 37 view .LVU1701
	setg	%r12b
.LVL563:
	.loc 5 33 5 is_stmt 1 view .LVU1702
	.loc 5 34 5 view .LVU1703
	.loc 5 36 5 view .LVU1704
	.loc 5 32 9 is_stmt 0 view .LVU1705
	movzbl	%cl, %ecx
.LVL564:
	.loc 5 34 34 view .LVU1706
	addl	%ecx, %ecx
.LVL565:
	.loc 5 34 9 view .LVU1707
	subl	%ecx, %ebx
	.loc 5 36 62 view .LVU1708
	leal	-1(%rax), %ecx
	.loc 5 36 54 view .LVU1709
	movl	%ebx, %eax
.LVL566:
	.loc 5 36 54 view .LVU1710
	imull	%ecx, %eax
	.loc 5 36 35 view .LVU1711
	testb	%r12b, %r12b
	.loc 5 36 30 view .LVU1712
	leal	-1(%rdx,%r13), %ecx
.LVL567:
	.loc 5 36 35 view .LVU1713
	cmove	%r9d, %ecx
	.loc 5 36 9 view .LVU1714
	addl	%ecx, %eax
.LVL568:
	.loc 5 37 5 is_stmt 1 view .LVU1715
	.loc 5 37 5 is_stmt 0 view .LVU1716
.LBE2229:
.LBE2246:
.LBB2247:
	.loc 5 248 13 view .LVU1717
	cmpl	%eax, %edi
	jle	.L237
.LVL569:
.LBB2245:
.LBB2244:
.LBI2232:
	.loc 5 186 14 is_stmt 1 view .LVU1718
.LBB2243:
.LBB2234:
.LBB2235:
.LBB2236:
	.loc 6 505 24 is_stmt 0 view .LVU1719
.LBE2236:
.LBE2235:
.LBE2234:
	.loc 5 188 17 view .LVU1720
	movl	%esi, %ecx
	sarl	$31, %ecx
	shrl	$29, %ecx
	leal	(%rsi,%rcx), %ebx
	andl	$7, %ebx
	subl	%ecx, %ebx
	.loc 5 189 36 view .LVU1721
	movl	%r10d, %ecx
	subl	%ebx, %ecx
	.loc 5 189 30 view .LVU1722
	movl	%r8d, %ebx
	sall	%cl, %ebx
.LVL570:
.LBB2241:
.LBI2234:
	.loc 6 364 7 is_stmt 1 view .LVU1723
.LBB2239:
.LBI2235:
	.loc 6 498 7 view .LVU1724
.LBB2237:
	.loc 6 502 2 discriminator 2 view .LVU1725
	.loc 6 503 2 discriminator 2 view .LVU1726
.LBE2237:
.LBE2239:
.LBE2241:
	.loc 5 187 17 is_stmt 0 view .LVU1727
	testl	%esi, %esi
	leal	7(%rsi), %ecx
	cmovns	%esi, %ecx
	sarl	$3, %ecx
.LBB2242:
.LBB2240:
.LBB2238:
	.loc 6 505 25 view .LVU1728
	movslq	%ecx, %rcx
	.loc 6 505 24 view .LVU1729
	movzbl	(%r11,%rcx), %ecx
.LVL571:
	.loc 6 505 24 view .LVU1730
.LBE2238:
.LBE2240:
.LBE2242:
.LBE2243:
.LBE2244:
	.loc 5 250 17 view .LVU1731
	notl	%ecx
.LVL572:
	.loc 5 250 17 view .LVU1732
	testb	%bl, %cl
	jne	.L242
	.loc 5 252 47 view .LVU1733
	subl	%eax, %edx
.LVL573:
	.loc 5 253 27 view .LVU1734
	subl	%eax, %edi
.LVL574:
	.loc 5 251 33 view .LVU1735
	leal	2(%rsi,%rsi), %esi
.LVL575:
	.loc 5 252 33 view .LVU1736
	subl	$1, %edx
.LVL576:
	.loc 5 253 23 view .LVU1737
	subl	$1, %edi
.LVL577:
	.loc 5 253 23 view .LVU1738
.LBE2245:
.LBE2247:
.LBE2250:
	.loc 5 261 28 is_stmt 1 view .LVU1739
	testl	%edx, %edx
	jg	.L235
.LVL578:
.L242:
	.loc 5 263 27 view .LVU1740
.LBB2251:
.LBB2252:
.LBB2253:
	.loc 5 198 43 is_stmt 0 view .LVU1741
	movl	$1, %edi
.LVL579:
	.loc 5 198 43 view .LVU1742
.LBE2253:
.LBE2252:
.LBE2251:
	.loc 5 263 27 view .LVU1743
	testl	%esi, %esi
	jg	.L239
	.loc 5 263 27 view .LVU1744
	jmp	.L240
.LVL580:
	.p2align 4,,10
	.p2align 3
.L243:
	.loc 5 263 27 is_stmt 1 view .LVU1745
	testl	%esi, %esi
	je	.L240
.LVL581:
.L239:
.LBB2261:
	.loc 5 264 39 is_stmt 0 view .LVU1746
	leal	-1(%rsi), %eax
	movl	%esi, %edx
	.loc 5 264 17 view .LVU1747
	movl	%eax, %esi
.LVL582:
	.loc 5 264 17 view .LVU1748
	sarl	%esi
.LVL583:
	.loc 5 265 13 view .LVU1749
	andl	$1, %edx
.LVL584:
	.loc 5 265 13 view .LVU1750
	je	.L243
.LVL585:
.LBB2260:
.LBI2252:
	.loc 5 195 14 is_stmt 1 view .LVU1751
.LBB2259:
.LBB2254:
.LBI2254:
	.loc 6 653 7 view .LVU1752
.LBE2254:
	.loc 5 198 43 is_stmt 0 view .LVU1753
	movl	%esi, %ecx
	movl	%edi, %edx
	.loc 5 196 17 view .LVU1754
	sarl	$4, %eax
.LVL586:
	.loc 5 198 43 view .LVU1755
	notl	%ecx
.LBB2257:
.LBB2255:
	.loc 6 655 35 view .LVU1756
	cltq
	.loc 6 655 35 view .LVU1757
.LBE2255:
.LBE2257:
	.loc 5 198 43 view .LVU1758
	andl	$7, %ecx
	sall	%cl, %edx
	.loc 5 198 21 view .LVU1759
	notl	%edx
.LBB2258:
.LBB2256:
	.loc 6 655 34 view .LVU1760
	lock andb	%dl, (%r11,%rax)
.LVL587:
	.loc 6 655 34 view .LVU1761
.LBE2256:
.LBE2258:
.LBE2259:
.LBE2260:
.LBE2261:
	.loc 5 263 27 is_stmt 1 view .LVU1762
	testl	%esi, %esi
	jne	.L239
.LVL588:
	.p2align 4,,10
	.p2align 3
.L240:
	.loc 5 263 27 is_stmt 0 view .LVU1763
	movl	%ebp, 12(%rsp)
.LBB2262:
.LBB2248:
	.loc 5 259 29 view .LVU1764
	xorl	%ebx, %ebx
	movl	$640, %edi
	xorl	%esi, %esi
.LBE2248:
.LBE2262:
.LBE2221:
.LBE2220:
.LBB2265:
.LBB2266:
.LBB2267:
.LBB2268:
.LBB2269:
	.loc 5 189 36 view .LVU1765
	movl	$7, %r14d
	.loc 5 189 30 view .LVU1766
	movl	$1, %r10d
.LBE2269:
.LBE2268:
.LBB2284:
.LBB2285:
	.loc 5 36 35 view .LVU1767
	xorl	%r13d, %r13d
.LVL589:
	.p2align 4,,10
	.p2align 3
.L236:
	.loc 5 36 35 view .LVU1768
.LBE2285:
.LBE2284:
.LBB2295:
.LBI2268:
	.loc 5 186 14 is_stmt 1 view .LVU1769
.LBB2282:
.LBB2270:
.LBB2271:
.LBB2272:
	.loc 6 505 24 is_stmt 0 view .LVU1770
.LBE2272:
.LBE2271:
.LBE2270:
	.loc 5 188 17 view .LVU1771
	movl	%esi, %edx
	.loc 5 189 36 view .LVU1772
	movl	%r14d, %ecx
	.loc 5 189 30 view .LVU1773
	movl	%r10d, %ebp
	.loc 5 188 17 view .LVU1774
	sarl	$31, %edx
	shrl	$29, %edx
	leal	(%rsi,%rdx), %eax
	andl	$7, %eax
	subl	%edx, %eax
	.loc 5 189 36 view .LVU1775
	subl	%eax, %ecx
	.loc 5 187 17 view .LVU1776
	leal	7(%rsi), %eax
	.loc 5 189 30 view .LVU1777
	sall	%cl, %ebp
.LVL590:
.LBB2279:
.LBI2270:
	.loc 6 364 7 is_stmt 1 view .LVU1778
.LBB2276:
.LBI2271:
	.loc 6 498 7 view .LVU1779
.LBB2273:
	.loc 6 502 2 discriminator 2 view .LVU1780
	.loc 6 503 2 discriminator 2 view .LVU1781
.LBE2273:
.LBE2276:
.LBE2279:
	.loc 5 187 17 is_stmt 0 view .LVU1782
	testl	%esi, %esi
	cmovns	%esi, %eax
	sarl	$3, %eax
.LBB2280:
.LBB2277:
.LBB2274:
	.loc 6 505 25 view .LVU1783
	cltq
	.loc 6 505 24 view .LVU1784
	movzbl	(%r11,%rax), %ecx
.LBE2274:
.LBE2277:
.LBE2280:
.LBE2282:
.LBE2295:
.LBB2296:
.LBB2292:
.LBB2286:
.LBB2287:
	.loc 5 11 16 view .LVU1785
	movl	%edi, %eax
.LBE2287:
.LBE2286:
.LBE2292:
.LBE2296:
.LBB2297:
.LBB2283:
.LBB2281:
.LBB2278:
.LBB2275:
	.loc 6 505 24 view .LVU1786
.LVL591:
	.loc 6 505 24 view .LVU1787
.LBE2275:
.LBE2278:
.LBE2281:
.LBE2283:
.LBE2297:
.LBB2298:
.LBI2284:
	.loc 5 28 19 is_stmt 1 view .LVU1788
.LBB2293:
	.loc 5 29 5 view .LVU1789
.LBB2290:
.LBI2286:
	.loc 5 10 19 view .LVU1790
.LBB2288:
	.loc 5 11 5 view .LVU1791
	.loc 5 11 16 is_stmt 0 view .LVU1792
	sarl	%eax
	.loc 5 11 7 view .LVU1793
	orl	%edi, %eax
.LVL592:
	.loc 5 12 5 is_stmt 1 view .LVU1794
.LBE2288:
.LBE2290:
.LBE2293:
.LBE2298:
	.loc 5 296 13 is_stmt 0 view .LVU1795
	notl	%ecx
.LVL593:
.LBB2299:
.LBB2294:
.LBB2291:
.LBB2289:
	.loc 5 12 16 view .LVU1796
	movl	%eax, %edx
	sarl	$2, %edx
	.loc 5 12 7 view .LVU1797
	orl	%edx, %eax
.LVL594:
	.loc 5 13 5 is_stmt 1 view .LVU1798
	.loc 5 13 16 is_stmt 0 view .LVU1799
	movl	%eax, %edx
	sarl	$4, %edx
	.loc 5 13 7 view .LVU1800
	orl	%edx, %eax
.LVL595:
	.loc 5 14 5 is_stmt 1 view .LVU1801
	.loc 5 14 16 is_stmt 0 view .LVU1802
	movl	%eax, %edx
	sarl	$8, %edx
	.loc 5 14 7 view .LVU1803
	orl	%edx, %eax
.LVL596:
	.loc 5 15 5 is_stmt 1 view .LVU1804
	.loc 5 15 16 is_stmt 0 view .LVU1805
	movl	%eax, %edx
	sarl	$16, %edx
	.loc 5 15 7 view .LVU1806
	orl	%edx, %eax
.LVL597:
	.loc 5 16 5 is_stmt 1 view .LVU1807
	.loc 5 16 19 is_stmt 0 view .LVU1808
	movl	%eax, %edx
	sarl	%edx
	.loc 5 16 23 view .LVU1809
	subl	%edx, %eax
.LVL598:
	.loc 5 16 23 view .LVU1810
.LBE2289:
.LBE2291:
	.loc 5 30 5 is_stmt 1 view .LVU1811
	.loc 5 30 9 is_stmt 0 view .LVU1812
	movl	%eax, %r9d
	.loc 5 32 21 view .LVU1813
	movl	%eax, %edx
	.loc 5 30 9 view .LVU1814
	sarl	%r9d
.LVL599:
	.loc 5 32 5 is_stmt 1 view .LVU1815
	.loc 5 32 21 is_stmt 0 view .LVU1816
	andl	$-2, %edx
	addl	%r9d, %edx
	.loc 5 32 37 view .LVU1817
	cmpl	%edi, %edx
	.loc 5 34 9 view .LVU1818
	movl	%r10d, %edx
	.loc 5 32 9 view .LVU1819
	setg	%r8b
	.loc 5 32 37 view .LVU1820
	setg	%r12b
.LVL600:
	.loc 5 33 5 is_stmt 1 view .LVU1821
	.loc 5 34 5 view .LVU1822
	.loc 5 36 5 view .LVU1823
	.loc 5 36 62 is_stmt 0 view .LVU1824
	subl	$1, %eax
.LVL601:
	.loc 5 32 9 view .LVU1825
	movzbl	%r8b, %r8d
.LVL602:
	.loc 5 34 34 view .LVU1826
	addl	%r8d, %r8d
.LVL603:
	.loc 5 34 9 view .LVU1827
	subl	%r8d, %edx
	.loc 5 36 54 view .LVU1828
	imull	%eax, %edx
	.loc 5 36 35 view .LVU1829
	testb	%r12b, %r12b
	.loc 5 36 30 view .LVU1830
	leal	-1(%rdi,%r9), %eax
.LVL604:
	.loc 5 36 35 view .LVU1831
	cmove	%r13d, %eax
	.loc 5 36 9 view .LVU1832
	addl	%eax, %edx
.LVL605:
	.loc 5 37 5 is_stmt 1 view .LVU1833
	.loc 5 37 5 is_stmt 0 view .LVU1834
.LBE2294:
.LBE2299:
	.loc 5 296 13 view .LVU1835
	testb	%bpl, %cl
	je	.L294
	.loc 5 305 29 view .LVU1836
	leal	1(%rsi,%rsi), %esi
.LVL606:
	.loc 5 305 29 view .LVU1837
.LBE2267:
	.loc 5 308 28 is_stmt 1 view .LVU1838
	testl	%edx, %edx
	jle	.L291
.LVL607:
.L245:
	.loc 5 308 28 is_stmt 0 view .LVU1839
.LBE2266:
.LBE2265:
.LBB2302:
.LBB2264:
.LBB2263:
.LBB2249:
	.loc 5 259 29 view .LVU1840
	movl	%edx, %edi
	jmp	.L236
.LVL608:
	.p2align 4,,10
	.p2align 3
.L294:
	.loc 5 259 29 view .LVU1841
.LBE2249:
.LBE2263:
.LBE2264:
.LBE2302:
.LBB2303:
.LBB2301:
.LBB2300:
	.loc 5 301 43 view .LVU1842
	subl	%edx, %edi
.LVL609:
	.loc 5 299 21 view .LVU1843
	leal	1(%rbx,%rdx), %ebx
.LVL610:
	.loc 5 300 29 view .LVU1844
	leal	2(%rsi,%rsi), %esi
.LVL611:
	.loc 5 301 29 view .LVU1845
	leal	-1(%rdi), %edx
.LVL612:
	.loc 5 301 29 view .LVU1846
.LBE2300:
	.loc 5 308 28 is_stmt 1 view .LVU1847
	testl	%edx, %edx
	jg	.L245
.L291:
	.loc 5 308 28 is_stmt 0 view .LVU1848
	movl	12(%rsp), %ebp
.LVL613:
	.loc 5 308 28 view .LVU1849
.LBE2301:
.LBE2303:
.LBB2304:
.LBI2304:
	.loc 11 662 5 is_stmt 1 view .LVU1850
.LBB2305:
	.loc 11 667 18 is_stmt 0 view .LVU1851
	leaq	_ZSt4cout(%rip), %r13
	movl	$28, %edx
	leaq	.LC7(%rip), %rsi
	movq	%r13, %rdi
.LEHB6:
	call	_ZSt16__ostream_insertIcSt11char_traitsIcEERSt13basic_ostreamIT_T0_ES6_PKS3_l@PLT
.LVL614:
.LEHE6:
	.loc 11 667 18 view .LVU1852
.LBE2305:
.LBE2304:
.LBB2306:
.LBI2306:
	.file 13 "/usr/include/c++/13.1.1/bits/basic_string.h"
	.loc 13 4163 3 is_stmt 1 view .LVU1853
.LBB2307:
	.loc 13 4168 5 view .LVU1854
	.loc 13 4168 16 is_stmt 0 view .LVU1855
	movl	%ebp, %eax
	.loc 13 4169 35 discriminator 1 view .LVU1856
	movl	%ebp, %ecx
	.loc 13 4168 16 view .LVU1857
	shrl	$31, %eax
.LVL615:
	.loc 13 4169 5 is_stmt 1 view .LVU1858
	.loc 13 4169 35 is_stmt 0 discriminator 1 view .LVU1859
	negl	%ecx
	testl	%ebp, %ebp
	cmovns	%ebp, %ecx
.LVL616:
	.loc 13 4170 5 is_stmt 1 view .LVU1860
.LBB2308:
.LBI2308:
	.file 14 "/usr/include/c++/13.1.1/bits/charconv.h"
	.loc 14 55 5 view .LVU1861
	.loc 14 55 5 is_stmt 0 view .LVU1862
.LBE2308:
	.loc 13 4171 18 discriminator 1 view .LVU1863
	movl	%eax, %edx
	.loc 13 4172 46 view .LVU1864
	movzbl	%al, %ebp
.LVL617:
.LBB2313:
.LBB2309:
	.loc 14 67 4 view .LVU1865
	cmpl	$9, %ecx
	jbe	.L248
	.loc 14 68 4 view .LVU1866
	cmpl	$99, %ecx
	jbe	.L249
	.loc 14 69 4 view .LVU1867
	cmpl	$999, %ecx
	jbe	.L273
	.loc 14 70 4 view .LVU1868
	cmpl	$9999, %ecx
	jbe	.L295
	.loc 14 71 12 view .LVU1869
	movl	%ecx, %eax
.LVL618:
	.loc 14 65 7 is_stmt 1 view .LVU1870
	.loc 14 65 7 is_stmt 0 view .LVU1871
	movl	$5, %esi
	.loc 14 67 4 view .LVU1872
	cmpl	$99999, %ecx
	jbe	.L258
	.loc 14 68 4 view .LVU1873
	cmpl	$999999, %ecx
	jbe	.L296
	movl	$6, %r14d
	movl	$7, %esi
	.loc 14 69 4 view .LVU1874
	cmpl	$9999999, %ecx
	jbe	.L257
	.loc 14 70 4 view .LVU1875
	cmpl	$99999999, %ecx
	jbe	.L275
.LVL619:
	.loc 14 65 7 is_stmt 1 view .LVU1876
	.loc 14 67 4 is_stmt 0 view .LVU1877
	cmpq	$999999999, %rax
	jbe	.L276
	.loc 14 72 8 view .LVU1878
	movl	$9, %r14d
.LVL620:
.L259:
	.loc 14 72 8 view .LVU1879
.LBE2309:
.LBE2313:
.LBB2314:
.LBB2315:
.LBB2316:
.LBB2317:
	.loc 13 202 25 discriminator 1 view .LVU1880
	leaq	32(%rsp), %rdi
	leaq	48(%rsp), %r12
.LVL621:
	.loc 13 202 25 discriminator 1 view .LVU1881
	movq	%rax, 16(%rsp)
	movl	%ecx, 12(%rsp)
.LVL622:
	.loc 13 202 25 discriminator 1 view .LVU1882
.LBE2317:
.LBE2316:
.LBE2315:
.LBE2314:
	.loc 13 4171 5 is_stmt 1 view .LVU1883
.LBB2363:
.LBI2363:
	.file 15 "/usr/include/c++/13.1.1/bits/allocator.h"
	.loc 15 163 7 view .LVU1884
.LBB2364:
.LBI2364:
	.file 16 "/usr/include/c++/13.1.1/bits/new_allocator.h"
	.loc 16 88 7 view .LVU1885
	.loc 16 88 7 is_stmt 0 view .LVU1886
.LBE2364:
.LBE2363:
.LBB2368:
.LBI2314:
	.loc 13 667 7 is_stmt 1 view .LVU1887
.LBB2352:
.LBB2337:
.LBI2337:
	.loc 13 240 7 view .LVU1888
	.loc 13 240 7 is_stmt 0 view .LVU1889
.LBE2337:
.LBB2338:
.LBI2316:
	.loc 13 201 2 is_stmt 1 view .LVU1890
.LBB2326:
.LBB2318:
.LBI2318:
	.loc 15 167 7 view .LVU1891
.LBB2319:
.LBI2319:
	.loc 16 92 7 view .LVU1892
	.loc 16 92 7 is_stmt 0 view .LVU1893
.LBE2319:
.LBE2318:
.LBE2326:
.LBE2338:
.LBE2352:
.LBE2368:
	.loc 13 4171 36 discriminator 1 view .LVU1894
	leal	1(%r14,%rdx), %esi
.LVL623:
.LBB2369:
.LBB2353:
.LBB2339:
.LBB2327:
	.loc 13 202 25 discriminator 1 view .LVU1895
	movq	%rdi, 24(%rsp)
	movq	%r12, 32(%rsp)
.LVL624:
.L292:
	.loc 13 202 25 discriminator 1 view .LVU1896
.LBE2327:
.LBE2339:
	.loc 13 669 21 view .LVU1897
	movl	$45, %edx
	call	_ZNSt7__cxx1112basic_stringIcSt11char_traitsIcESaIcEE12_M_constructEmc@PLT
.LVL625:
	.loc 13 669 21 view .LVU1898
.LBE2353:
.LBE2369:
.LBB2370:
.LBI2370:
	.loc 15 184 7 is_stmt 1 view .LVU1899
.LBB2371:
.LBI2371:
	.loc 16 100 7 view .LVU1900
.LBE2371:
.LBE2370:
	.loc 13 4172 5 view .LVU1901
.LBB2374:
.LBI2374:
	.loc 13 1255 7 view .LVU1902
.LBB2375:
	.loc 13 1259 2 discriminator 2 view .LVU1903
.LBB2376:
.LBI2376:
	.loc 13 235 7 view .LVU1904
	.loc 13 235 7 is_stmt 0 view .LVU1905
	movq	16(%rsp), %rax
	movl	12(%rsp), %ecx
.LBE2376:
.LBE2375:
.LBE2374:
.LBB2382:
.LBB2383:
	.loc 14 87 22 view .LVU1906
	movdqa	.LC11(%rip), %xmm0
.LBE2383:
.LBE2382:
.LBB2393:
.LBB2379:
	.loc 13 1262 24 discriminator 1 view .LVU1907
	addq	32(%rsp), %rbp
.LVL626:
	.loc 13 1262 24 discriminator 1 view .LVU1908
.LBE2379:
.LBE2393:
.LBB2394:
.LBI2382:
	.loc 14 81 5 is_stmt 1 view .LVU1909
.LBB2389:
	.loc 14 94 20 view .LVU1910
	.loc 14 87 22 is_stmt 0 view .LVU1911
	movq	%rax, %rdx
	movaps	%xmm0, 64(%rsp)
	movdqa	.LC12(%rip), %xmm0
	movaps	%xmm0, 80(%rsp)
	movdqa	.LC13(%rip), %xmm0
	movaps	%xmm0, 96(%rsp)
	movdqa	.LC14(%rip), %xmm0
	movaps	%xmm0, 112(%rsp)
	movdqa	.LC15(%rip), %xmm0
	movaps	%xmm0, 128(%rsp)
	movdqa	.LC16(%rip), %xmm0
	movaps	%xmm0, 144(%rsp)
	movdqa	.LC17(%rip), %xmm0
	movaps	%xmm0, 160(%rsp)
	movdqa	.LC18(%rip), %xmm0
	movaps	%xmm0, 176(%rsp)
	movdqa	.LC19(%rip), %xmm0
	movaps	%xmm0, 192(%rsp)
	movdqa	.LC20(%rip), %xmm0
	movaps	%xmm0, 208(%rsp)
	movdqa	.LC21(%rip), %xmm0
	movaps	%xmm0, 224(%rsp)
	movdqa	.LC22(%rip), %xmm0
	movaps	%xmm0, 240(%rsp)
	movdqa	.LC23(%rip), %xmm0
	movups	%xmm0, 249(%rsp)
	jmp	.L261
.LVL627:
	.p2align 4,,10
	.p2align 3
.L297:
	.loc 14 87 22 view .LVU1912
	movl	%ecx, %edx
.LVL628:
.L261:
.LBB2384:
	.loc 14 96 30 view .LVU1913
	imulq	$1374389535, %rdx, %rdx
	movl	%ecx, %eax
	shrq	$37, %rdx
	imull	$100, %edx, %esi
	subl	%esi, %eax
	movl	%ecx, %esi
	.loc 14 97 10 view .LVU1914
	movl	%edx, %ecx
.LVL629:
	.loc 14 98 12 view .LVU1915
	movl	%r14d, %edx
	.loc 14 96 15 view .LVU1916
	addl	%eax, %eax
.LVL630:
	.loc 14 98 29 view .LVU1917
	leal	1(%rax), %edi
	.loc 14 99 23 view .LVU1918
	movzbl	64(%rsp,%rax), %eax
.LVL631:
	.loc 14 98 19 view .LVU1919
	movzbl	64(%rsp,%rdi), %edi
	movb	%dil, 0(%rbp,%rdx)
	.loc 14 99 18 view .LVU1920
	leal	-1(%r14), %edx
	.loc 14 100 10 view .LVU1921
	subl	$2, %r14d
.LVL632:
	.loc 14 100 10 view .LVU1922
.LBE2384:
	.loc 14 94 20 is_stmt 1 view .LVU1923
.LBB2385:
	.loc 14 99 23 is_stmt 0 view .LVU1924
	movb	%al, 0(%rbp,%rdx)
.LBE2385:
	.loc 14 94 20 view .LVU1925
	cmpl	$9999, %esi
	ja	.L297
.LBB2386:
	.loc 14 102 7 view .LVU1926
	cmpl	$999, %esi
	ja	.L255
.LVL633:
.L262:
	.loc 14 109 19 view .LVU1927
	addl	$48, %ecx
.L263:
	.loc 14 109 19 view .LVU1928
	movb	%cl, 0(%rbp)
.LVL634:
	.loc 14 109 19 view .LVU1929
.LBE2386:
.LBE2389:
.LBE2394:
	.loc 13 4173 5 is_stmt 1 view .LVU1930
	.loc 13 4173 5 is_stmt 0 view .LVU1931
.LBE2307:
.LBE2306:
.LBB2419:
.LBI2419:
	.loc 13 4033 5 is_stmt 1 view .LVU1932
.LBB2420:
.LBB2421:
.LBI2421:
	.loc 13 1072 7 view .LVU1933
	.loc 13 1072 7 is_stmt 0 view .LVU1934
.LBE2421:
.LBB2422:
.LBI2422:
	.loc 13 2609 7 is_stmt 1 view .LVU1935
.LBB2423:
.LBI2423:
	.loc 13 235 7 view .LVU1936
	.loc 13 235 7 is_stmt 0 view .LVU1937
.LBE2423:
.LBE2422:
	.loc 13 4038 30 discriminator 2 view .LVU1938
	movq	40(%rsp), %rdx
	movq	%r13, %rdi
	movq	32(%rsp), %rsi
.LEHB7:
	call	_ZSt16__ostream_insertIcSt11char_traitsIcEERSt13basic_ostreamIT_T0_ES6_PKS3_l@PLT
.LVL635:
.LBE2420:
.LBE2419:
.LBB2425:
.LBB2426:
	.loc 11 667 18 view .LVU1939
	movl	$2, %edx
	leaq	.LC8(%rip), %rsi
	movq	%rax, %rdi
.LBE2426:
.LBE2425:
.LBB2428:
.LBB2424:
	.loc 13 4038 30 discriminator 2 view .LVU1940
	movq	%rax, %rbp
.LVL636:
	.loc 13 4038 30 discriminator 2 view .LVU1941
.LBE2424:
.LBE2428:
.LBB2429:
.LBI2425:
	.loc 11 662 5 is_stmt 1 view .LVU1942
.LBB2427:
	.loc 11 667 18 is_stmt 0 view .LVU1943
	call	_ZSt16__ostream_insertIcSt11char_traitsIcEERSt13basic_ostreamIT_T0_ES6_PKS3_l@PLT
.LVL637:
	.loc 11 667 18 view .LVU1944
.LBE2427:
.LBE2429:
	.loc 4 54 87 discriminator 4 view .LVU1945
	movl	%ebx, %esi
	movq	%rbp, %rdi
	call	_ZNSolsEi@PLT
.LVL638:
.LBB2430:
.LBB2431:
	.loc 11 667 18 view .LVU1946
	movl	$11, %edx
	leaq	.LC9(%rip), %rsi
	movq	%rax, %rdi
.LBE2431:
.LBE2430:
	.loc 4 54 87 discriminator 4 view .LVU1947
	movq	%rax, %rbp
.LVL639:
.LBB2433:
.LBI2430:
	.loc 11 662 5 is_stmt 1 view .LVU1948
.LBB2432:
	.loc 11 667 18 is_stmt 0 view .LVU1949
	call	_ZSt16__ostream_insertIcSt11char_traitsIcEERSt13basic_ostreamIT_T0_ES6_PKS3_l@PLT
.LVL640:
	.loc 11 667 18 view .LVU1950
.LBE2432:
.LBE2433:
	.loc 4 55 44 view .LVU1951
	movl	%r15d, %esi
	movq	%rbp, %rdi
	call	_ZNSolsEi@PLT
.LVL641:
.LBB2434:
.LBB2435:
	.loc 11 667 18 view .LVU1952
	movl	$1, %edx
	leaq	.LC10(%rip), %rsi
	movq	%rax, %rdi
.LBE2435:
.LBE2434:
	.loc 4 55 44 view .LVU1953
	movq	%rax, %rbp
.LVL642:
.LBB2437:
.LBI2434:
	.loc 11 662 5 is_stmt 1 view .LVU1954
.LBB2436:
	.loc 11 667 18 is_stmt 0 view .LVU1955
	call	_ZSt16__ostream_insertIcSt11char_traitsIcEERSt13basic_ostreamIT_T0_ES6_PKS3_l@PLT
.LVL643:
	.loc 11 667 18 view .LVU1956
.LBE2436:
.LBE2437:
.LBB2438:
.LBI2438:
	.loc 11 110 7 is_stmt 1 view .LVU1957
.LBB2439:
.LBI2439:
	.loc 11 735 5 view .LVU1958
.LBB2440:
	.loc 11 736 39 is_stmt 0 view .LVU1959
	movq	0(%rbp), %rax
	movq	-24(%rax), %rax
	movq	240(%rbp,%rax), %r13
.LVL644:
.LBB2441:
.LBI2441:
	.loc 12 449 7 is_stmt 1 view .LVU1960
.LBB2442:
.LBI2442:
	.loc 12 47 5 view .LVU1961
.LBB2443:
	.loc 12 49 7 is_stmt 0 view .LVU1962
	testq	%r13, %r13
	je	.L298
.LVL645:
	.loc 12 49 7 view .LVU1963
.LBE2443:
.LBE2442:
.LBB2445:
.LBI2445:
	.loc 1 880 7 is_stmt 1 view .LVU1964
.LBB2446:
	.loc 1 882 2 view .LVU1965
	cmpb	$0, 56(%r13)
	je	.L266
	.loc 1 883 4 view .LVU1966
.LBE2446:
.LBE2445:
.LBE2441:
	.loc 11 736 19 is_stmt 0 discriminator 1 view .LVU1967
	movsbl	67(%r13), %esi
.LVL646:
.L267:
	.loc 11 736 19 discriminator 1 view .LVU1968
	movq	%rbp, %rdi
	call	_ZNSo3putEc@PLT
.LVL647:
	movq	%rax, %rdi
.LVL648:
.LBB2452:
.LBI2452:
	.loc 11 757 5 is_stmt 1 view .LVU1969
.LBB2453:
	.loc 11 758 24 is_stmt 0 view .LVU1970
	call	_ZNSo5flushEv@PLT
.LVL649:
.LEHE7:
	.loc 11 758 24 view .LVU1971
.LBE2453:
.LBE2452:
.LBE2440:
.LBE2439:
.LBE2438:
.LBB2460:
.LBI2460:
	.loc 13 804 7 is_stmt 1 view .LVU1972
.LBB2461:
.LBB2462:
.LBI2462:
	.loc 13 293 7 view .LVU1973
.LBB2463:
.LBB2464:
.LBI2464:
	.loc 13 275 7 view .LVU1974
.LBB2465:
.LBB2466:
.LBI2466:
	.loc 13 235 7 view .LVU1975
.LBB2467:
	.loc 13 236 28 is_stmt 0 view .LVU1976
	movq	32(%rsp), %rdi
.LVL650:
	.loc 13 236 28 view .LVU1977
.LBE2467:
.LBE2466:
.LBB2468:
.LBI2468:
	.loc 13 251 7 is_stmt 1 view .LVU1978
	.loc 13 251 7 is_stmt 0 view .LVU1979
.LBE2468:
	.loc 13 277 2 discriminator 2 view .LVU1980
	cmpq	%r12, %rdi
	je	.L268
.LVL651:
	.loc 13 277 2 discriminator 2 view .LVU1981
.LBE2465:
.LBE2464:
.LBB2469:
.LBI2469:
	.loc 13 301 7 is_stmt 1 view .LVU1982
.LBB2470:
.LBB2471:
.LBI2471:
	.file 17 "/usr/include/c++/13.1.1/bits/alloc_traits.h"
	.loc 17 515 7 view .LVU1983
.LBB2472:
.LBI2472:
	.loc 16 152 7 view .LVU1984
	.loc 16 152 7 is_stmt 0 view .LVU1985
.LBE2472:
.LBE2471:
	.loc 13 302 34 view .LVU1986
	movq	48(%rsp), %rax
	leaq	1(%rax), %rsi
.LVL652:
.LBB2475:
.LBB2474:
.LBB2473:
	.loc 16 168 26 view .LVU1987
	call	_ZdlPvm@PLT
.LVL653:
.L268:
	.loc 16 168 26 view .LVU1988
.LBE2473:
.LBE2474:
.LBE2475:
.LBE2470:
.LBE2469:
.LBE2463:
.LBE2462:
.LBB2476:
.LBI2476:
	.loc 13 194 14 is_stmt 1 view .LVU1989
.LBB2477:
.LBI2477:
	.loc 15 184 7 view .LVU1990
	.loc 15 184 7 is_stmt 0 view .LVU1991
.LBE2477:
.LBE2476:
.LBE2461:
.LBE2460:
	.loc 4 56 20 view .LVU1992
	cmpl	%ebx, %r15d
	sete	%al
	.loc 4 57 1 view .LVU1993
	movq	280(%rsp), %rdx
	subq	%fs:40, %rdx
	jne	.L288
	addq	$296, %rsp
	.cfi_remember_state
	.cfi_def_cfa_offset 56
	popq	%rbx
	.cfi_def_cfa_offset 48
.LVL654:
	.loc 4 57 1 view .LVU1994
	popq	%rbp
	.cfi_def_cfa_offset 40
	popq	%r12
	.cfi_def_cfa_offset 32
	popq	%r13
	.cfi_def_cfa_offset 24
	popq	%r14
	.cfi_def_cfa_offset 16
	popq	%r15
	.cfi_def_cfa_offset 8
.LVL655:
	.loc 4 57 1 view .LVU1995
	ret
.LVL656:
.L249:
	.cfi_restore_state
.LBB2478:
.LBB2417:
.LBB2395:
.LBB2354:
.LBB2340:
.LBB2328:
	.loc 13 202 25 discriminator 1 view .LVU1996
	leaq	32(%rsp), %rdi
	leaq	48(%rsp), %r12
.LVL657:
	.loc 13 202 25 discriminator 1 view .LVU1997
.LBE2328:
.LBE2340:
	.loc 13 669 21 view .LVU1998
	movl	$45, %edx
	movl	%ecx, 12(%rsp)
.LVL658:
	.loc 13 669 21 view .LVU1999
.LBE2354:
.LBE2395:
	.loc 13 4171 5 is_stmt 1 view .LVU2000
.LBB2396:
	.loc 15 163 7 view .LVU2001
.LBB2365:
	.loc 16 88 7 view .LVU2002
	.loc 16 88 7 is_stmt 0 view .LVU2003
.LBE2365:
.LBE2396:
.LBB2397:
	.loc 13 667 7 is_stmt 1 view .LVU2004
.LBB2355:
.LBB2341:
	.loc 13 240 7 view .LVU2005
	.loc 13 240 7 is_stmt 0 view .LVU2006
.LBE2341:
.LBB2342:
	.loc 13 201 2 is_stmt 1 view .LVU2007
.LBB2329:
.LBB2323:
	.loc 15 167 7 view .LVU2008
.LBB2320:
	.loc 16 92 7 view .LVU2009
	.loc 16 92 7 is_stmt 0 view .LVU2010
.LBE2320:
.LBE2323:
.LBE2329:
.LBE2342:
.LBE2355:
.LBE2397:
	.loc 13 4171 24 discriminator 1 view .LVU2011
	leal	2(%rax), %esi
.LVL659:
.LBB2398:
.LBB2356:
.LBB2343:
.LBB2330:
	.loc 13 202 25 discriminator 1 view .LVU2012
	movq	%rdi, 24(%rsp)
	movq	%r12, 32(%rsp)
.LVL660:
	.loc 13 202 25 discriminator 1 view .LVU2013
.LBE2330:
.LBE2343:
	.loc 13 669 21 view .LVU2014
	call	_ZNSt7__cxx1112basic_stringIcSt11char_traitsIcESaIcEE12_M_constructEmc@PLT
.LVL661:
	.loc 13 669 21 view .LVU2015
.LBE2356:
.LBE2398:
.LBB2399:
	.loc 15 184 7 is_stmt 1 view .LVU2016
.LBB2372:
	.loc 16 100 7 view .LVU2017
.LBE2372:
.LBE2399:
	.loc 13 4172 5 view .LVU2018
.LBB2400:
	.loc 13 1255 7 view .LVU2019
.LBB2380:
	.loc 13 1259 2 discriminator 2 view .LVU2020
.LBB2377:
	.loc 13 235 7 view .LVU2021
	.loc 13 235 7 is_stmt 0 view .LVU2022
	movl	12(%rsp), %ecx
.LBE2377:
	.loc 13 1262 24 discriminator 1 view .LVU2023
	addq	32(%rsp), %rbp
.LVL662:
	.loc 13 1262 24 discriminator 1 view .LVU2024
.LBE2380:
.LBE2400:
.LBB2401:
	.loc 14 81 5 is_stmt 1 view .LVU2025
.LBB2390:
	.loc 14 87 22 is_stmt 0 view .LVU2026
	movdqa	.LC11(%rip), %xmm0
	movaps	%xmm0, 64(%rsp)
	movdqa	.LC12(%rip), %xmm0
	movaps	%xmm0, 80(%rsp)
	movdqa	.LC13(%rip), %xmm0
	movaps	%xmm0, 96(%rsp)
	movdqa	.LC14(%rip), %xmm0
	movaps	%xmm0, 112(%rsp)
	movdqa	.LC15(%rip), %xmm0
	movaps	%xmm0, 128(%rsp)
	movdqa	.LC16(%rip), %xmm0
	movaps	%xmm0, 144(%rsp)
	movdqa	.LC17(%rip), %xmm0
	movaps	%xmm0, 160(%rsp)
	movdqa	.LC18(%rip), %xmm0
	movaps	%xmm0, 176(%rsp)
	movdqa	.LC19(%rip), %xmm0
	movaps	%xmm0, 192(%rsp)
	movdqa	.LC20(%rip), %xmm0
	movaps	%xmm0, 208(%rsp)
	movdqa	.LC21(%rip), %xmm0
	movaps	%xmm0, 224(%rsp)
	movdqa	.LC22(%rip), %xmm0
	movaps	%xmm0, 240(%rsp)
	movdqa	.LC23(%rip), %xmm0
	movups	%xmm0, 249(%rsp)
.LVL663:
	.loc 14 94 20 is_stmt 1 view .LVU2027
	.p2align 4,,10
	.p2align 3
.L255:
.LBB2388:
.LBB2387:
	.loc 14 104 15 is_stmt 0 view .LVU2028
	addl	%ecx, %ecx
.LVL664:
	.loc 14 105 25 view .LVU2029
	leal	1(%rcx), %eax
	.loc 14 106 25 view .LVU2030
	movzbl	64(%rsp,%rcx), %ecx
.LVL665:
	.loc 14 105 15 view .LVU2031
	movzbl	64(%rsp,%rax), %eax
	movb	%al, 1(%rbp)
.LBE2387:
	jmp	.L263
.LVL666:
	.p2align 4,,10
	.p2align 3
.L276:
	.loc 14 105 15 view .LVU2032
.LBE2388:
.LBE2390:
.LBE2401:
.LBB2402:
.LBB2310:
	.loc 14 72 8 view .LVU2033
	movl	$9, %esi
.LVL667:
.L258:
	.loc 14 72 8 view .LVU2034
.LBE2310:
.LBE2402:
.LBB2403:
.LBB2391:
	.loc 14 93 16 view .LVU2035
	leal	-1(%rsi), %r14d
.L257:
.LBE2391:
.LBE2403:
.LBB2404:
.LBB2357:
.LBB2344:
.LBB2331:
	.loc 13 202 25 discriminator 1 view .LVU2036
	leaq	32(%rsp), %rdi
	leaq	48(%rsp), %r12
.LVL668:
	.loc 13 202 25 discriminator 1 view .LVU2037
	movl	%ecx, 12(%rsp)
.LVL669:
	.loc 13 202 25 discriminator 1 view .LVU2038
.LBE2331:
.LBE2344:
.LBE2357:
.LBE2404:
	.loc 13 4171 5 is_stmt 1 view .LVU2039
.LBB2405:
	.loc 15 163 7 view .LVU2040
.LBB2366:
	.loc 16 88 7 view .LVU2041
	.loc 16 88 7 is_stmt 0 view .LVU2042
.LBE2366:
.LBE2405:
.LBB2406:
	.loc 13 667 7 is_stmt 1 view .LVU2043
.LBB2358:
.LBB2345:
	.loc 13 240 7 view .LVU2044
	.loc 13 240 7 is_stmt 0 view .LVU2045
.LBE2345:
.LBB2346:
	.loc 13 201 2 is_stmt 1 view .LVU2046
.LBB2332:
.LBB2324:
	.loc 15 167 7 view .LVU2047
.LBB2321:
	.loc 16 92 7 view .LVU2048
	.loc 16 92 7 is_stmt 0 view .LVU2049
.LBE2321:
.LBE2324:
.LBE2332:
.LBE2346:
.LBE2358:
.LBE2406:
	.loc 13 4171 24 discriminator 1 view .LVU2050
	addl	%edx, %esi
	movq	%rax, 16(%rsp)
.LBB2407:
.LBB2359:
.LBB2347:
.LBB2333:
	.loc 13 202 25 discriminator 1 view .LVU2051
	movq	%rdi, 24(%rsp)
	movq	%r12, 32(%rsp)
.LVL670:
	.loc 13 202 25 discriminator 1 view .LVU2052
	jmp	.L292
.LVL671:
	.p2align 4,,10
	.p2align 3
.L266:
	.loc 13 202 25 discriminator 1 view .LVU2053
.LBE2333:
.LBE2347:
.LBE2359:
.LBE2407:
.LBE2417:
.LBE2478:
.LBB2479:
.LBB2458:
.LBB2456:
.LBB2454:
.LBB2450:
.LBB2449:
.LBB2447:
.LBI2447:
	.loc 1 880 7 is_stmt 1 view .LVU2054
.LBB2448:
	.loc 1 884 2 view .LVU2055
	.loc 1 884 21 is_stmt 0 view .LVU2056
	movq	%r13, %rdi
.LEHB8:
	call	_ZNKSt5ctypeIcE13_M_widen_initEv@PLT
.LVL672:
	.loc 1 885 2 is_stmt 1 view .LVU2057
	.loc 1 885 23 is_stmt 0 view .LVU2058
	movq	0(%r13), %rax
	leaq	_ZNKSt5ctypeIcE8do_widenEc(%rip), %rdx
	movl	$10, %esi
	movq	48(%rax), %rax
	cmpq	%rdx, %rax
	je	.L267
	movq	%r13, %rdi
	call	*%rax
.LVL673:
.LEHE8:
.LBE2448:
.LBE2447:
.LBE2449:
.LBE2450:
.LBE2454:
	.loc 11 736 19 discriminator 1 view .LVU2059
	movsbl	%al, %esi
	jmp	.L267
.LVL674:
	.p2align 4,,10
	.p2align 3
.L275:
	.loc 11 736 19 discriminator 1 view .LVU2060
.LBE2456:
.LBE2458:
.LBE2479:
.LBB2480:
.LBB2418:
.LBB2408:
.LBB2311:
	movl	$7, %r14d
	movl	$8, %esi
	.loc 14 70 37 view .LVU2061
	jmp	.L257
.LVL675:
.L248:
	.loc 14 70 37 view .LVU2062
.LBE2311:
.LBE2408:
.LBB2409:
.LBB2360:
.LBB2348:
.LBB2334:
	.loc 13 202 25 discriminator 1 view .LVU2063
	leaq	32(%rsp), %rdi
	leaq	48(%rsp), %r12
.LVL676:
	.loc 13 202 25 discriminator 1 view .LVU2064
.LBE2334:
.LBE2348:
	.loc 13 669 21 view .LVU2065
	movl	$45, %edx
	movl	%ecx, 12(%rsp)
.LVL677:
	.loc 13 669 21 view .LVU2066
.LBE2360:
.LBE2409:
	.loc 13 4171 5 is_stmt 1 view .LVU2067
.LBB2410:
	.loc 15 163 7 view .LVU2068
.LBB2367:
	.loc 16 88 7 view .LVU2069
	.loc 16 88 7 is_stmt 0 view .LVU2070
.LBE2367:
.LBE2410:
.LBB2411:
	.loc 13 667 7 is_stmt 1 view .LVU2071
.LBB2361:
.LBB2349:
	.loc 13 240 7 view .LVU2072
	.loc 13 240 7 is_stmt 0 view .LVU2073
.LBE2349:
.LBB2350:
	.loc 13 201 2 is_stmt 1 view .LVU2074
.LBB2335:
.LBB2325:
	.loc 15 167 7 view .LVU2075
.LBB2322:
	.loc 16 92 7 view .LVU2076
	.loc 16 92 7 is_stmt 0 view .LVU2077
.LBE2322:
.LBE2325:
.LBE2335:
.LBE2350:
.LBE2361:
.LBE2411:
	.loc 13 4171 24 discriminator 1 view .LVU2078
	leal	1(%rax), %esi
.LVL678:
.LBB2412:
.LBB2362:
.LBB2351:
.LBB2336:
	.loc 13 202 25 discriminator 1 view .LVU2079
	movq	%rdi, 24(%rsp)
	movq	%r12, 32(%rsp)
.LVL679:
	.loc 13 202 25 discriminator 1 view .LVU2080
.LBE2336:
.LBE2351:
	.loc 13 669 21 view .LVU2081
	call	_ZNSt7__cxx1112basic_stringIcSt11char_traitsIcESaIcEE12_M_constructEmc@PLT
.LVL680:
	.loc 13 669 21 view .LVU2082
.LBE2362:
.LBE2412:
.LBB2413:
	.loc 15 184 7 is_stmt 1 view .LVU2083
.LBB2373:
	.loc 16 100 7 view .LVU2084
.LBE2373:
.LBE2413:
	.loc 13 4172 5 view .LVU2085
.LBB2414:
	.loc 13 1255 7 view .LVU2086
.LBB2381:
	.loc 13 1259 2 discriminator 2 view .LVU2087
.LBB2378:
	.loc 13 235 7 view .LVU2088
	.loc 13 235 7 is_stmt 0 view .LVU2089
	movl	12(%rsp), %ecx
.LBE2378:
	.loc 13 1262 24 discriminator 1 view .LVU2090
	addq	32(%rsp), %rbp
.LVL681:
	.loc 13 1262 24 discriminator 1 view .LVU2091
.LBE2381:
.LBE2414:
.LBB2415:
	.loc 14 81 5 is_stmt 1 view .LVU2092
.LBB2392:
	.loc 14 94 20 view .LVU2093
	jmp	.L262
.LVL682:
.L273:
	.loc 14 94 20 is_stmt 0 view .LVU2094
.LBE2392:
.LBE2415:
.LBB2416:
.LBB2312:
	.loc 14 69 4 view .LVU2095
	movl	$2, %r14d
	movl	$3, %esi
	movl	%ecx, %eax
.LVL683:
	.loc 14 69 37 view .LVU2096
	jmp	.L257
.LVL684:
.L295:
	.loc 14 70 4 view .LVU2097
	movl	$3, %r14d
	movl	$4, %esi
	movl	%ecx, %eax
.LVL685:
	.loc 14 70 4 view .LVU2098
	jmp	.L257
.LVL686:
.L296:
	.loc 14 70 4 view .LVU2099
	movl	$5, %r14d
	jmp	.L259
.LVL687:
.L269:
	.loc 14 70 4 view .LVU2100
.LBE2312:
.LBE2416:
.LBE2418:
.LBE2480:
.LBB2481:
.LBI2481:
	.loc 13 804 7 is_stmt 1 view .LVU2101
.LBB2482:
	.loc 13 805 19 is_stmt 0 view .LVU2102
	movq	24(%rsp), %rdi
	call	_ZNSt7__cxx1112basic_stringIcSt11char_traitsIcESaIcEE10_M_disposeEv@PLT
.LVL688:
.LBB2483:
.LBI2483:
	.loc 13 194 14 is_stmt 1 view .LVU2103
.LBB2484:
.LBI2484:
	.loc 15 184 7 view .LVU2104
	.loc 15 184 7 is_stmt 0 view .LVU2105
	movq	280(%rsp), %rax
	subq	%fs:40, %rax
	je	.L270
.L288:
.LBE2484:
.LBE2483:
.LBE2482:
.LBE2481:
	.loc 4 57 1 view .LVU2106
	call	__stack_chk_fail@PLT
.LVL689:
.L298:
.LBB2486:
.LBB2459:
.LBB2457:
.LBB2455:
.LBB2451:
.LBB2444:
	.loc 12 50 18 view .LVU2107
	movq	280(%rsp), %rax
	subq	%fs:40, %rax
.LVL690:
	.loc 12 50 18 view .LVU2108
	jne	.L288
.LEHB9:
	call	_ZSt16__throw_bad_castv@PLT
.LVL691:
.LEHE9:
.L278:
	.loc 12 50 18 view .LVU2109
.LBE2444:
.LBE2451:
.LBE2455:
.LBE2457:
.LBE2459:
.LBE2486:
.LBB2487:
.LBB2485:
	.loc 13 805 19 view .LVU2110
	movq	%rax, %rbx
.LVL692:
	.loc 13 805 19 view .LVU2111
	jmp	.L269
.L270:
	movq	%rbx, %rdi
.LEHB10:
	call	_Unwind_Resume@PLT
.LVL693:
.LEHE10:
.LBE2485:
.LBE2487:
	.cfi_endproc
.LFE3080:
	.section	.gcc_except_table
.LLSDA3080:
	.byte	0xff
	.byte	0xff
	.byte	0x1
	.uleb128 .LLSDACSE3080-.LLSDACSB3080
.LLSDACSB3080:
	.uleb128 .LEHB6-.LFB3080
	.uleb128 .LEHE6-.LEHB6
	.uleb128 0
	.uleb128 0
	.uleb128 .LEHB7-.LFB3080
	.uleb128 .LEHE7-.LEHB7
	.uleb128 .L278-.LFB3080
	.uleb128 0
	.uleb128 .LEHB8-.LFB3080
	.uleb128 .LEHE8-.LEHB8
	.uleb128 .L278-.LFB3080
	.uleb128 0
	.uleb128 .LEHB9-.LFB3080
	.uleb128 .LEHE9-.LEHB9
	.uleb128 .L278-.LFB3080
	.uleb128 0
	.uleb128 .LEHB10-.LFB3080
	.uleb128 .LEHE10-.LEHB10
	.uleb128 0
	.uleb128 0
.LLSDACSE3080:
	.section	.text._Z12writeAndReadILi80EEbR14BoundedMinReg2IXT_EEii,"axG",@progbits,_Z12writeAndReadILi80EEbR14BoundedMinReg2IXT_EEii,comdat
	.size	_Z12writeAndReadILi80EEbR14BoundedMinReg2IXT_EEii, .-_Z12writeAndReadILi80EEbR14BoundedMinReg2IXT_EEii
	.section	.rodata.str1.1
.LC24:
	.string	"void regTest()"
.LC25:
	.string	"writeAndRead(r, 500,10)"
.LC26:
	.string	"writeAndRead(r,16,10)"
.LC27:
	.string	"writeAndRead(r, -1, 10)"
.LC28:
	.string	"writeAndRead(r, 10,10)"
.LC29:
	.string	"writeAndRead(r,9,9)"
.LC30:
	.string	"writeAndRead(r, 10, 9)"
.LC31:
	.string	"writeAndRead(r, 500,9)"
.LC32:
	.string	"writeAndRead(r, 4, 4)"
.LC33:
	.string	"writeAndRead(r, i, 4)"
.LC34:
	.string	"writeAndRead(r, 2, 2)"
.LC35:
	.string	"writeAndRead(r, i, 2)"
.LC36:
	.string	"writeAndRead(r,-1,2)"
.LC37:
	.string	"writeAndRead(r, 500, 2)"
.LC38:
	.string	"writeAndRead(r, 0, 0)"
.LC39:
	.string	"writeAndRead(r, i, 0)"
.LC40:
	.string	"writeAndRead(r,-1,0)"
.LC41:
	.string	"writeAndRead(r, 1000, 0)"
	.text
	.p2align 4
	.globl	_Z7regTestv
	.type	_Z7regTestv, @function
_Z7regTestv:
.LFB2698:
	.loc 4 58 15 is_stmt 1 view -0
	.cfi_startproc
	pushq	%r15
	.cfi_def_cfa_offset 16
	.cfi_offset 15, -16
.LBB2616:
.LBB2617:
.LBB2618:
.LBB2619:
.LBB2620:
.LBB2621:
.LBB2622:
.LBB2623:
.LBB2624:
.LBB2625:
	.loc 6 481 18 is_stmt 0 view .LVU2113
	movl	$-1, %edx
.LBE2625:
.LBE2624:
.LBE2623:
.LBE2622:
.LBE2621:
.LBE2620:
.LBE2619:
.LBE2618:
.LBE2617:
.LBE2616:
	.loc 4 58 15 view .LVU2114
	pushq	%r14
	.cfi_def_cfa_offset 24
	.cfi_offset 14, -24
	pushq	%r13
	.cfi_def_cfa_offset 32
	.cfi_offset 13, -32
	pushq	%r12
	.cfi_def_cfa_offset 40
	.cfi_offset 12, -40
	pushq	%rbp
	.cfi_def_cfa_offset 48
	.cfi_offset 6, -48
	pushq	%rbx
	.cfi_def_cfa_offset 56
	.cfi_offset 3, -56
	subq	$104, %rsp
	.cfi_def_cfa_offset 160
	.loc 4 58 15 view .LVU2115
	movq	%fs:40, %rax
	movq	%rax, 88(%rsp)
	xorl	%eax, %eax
	.loc 4 59 5 is_stmt 1 view .LVU2116
.LVL694:
.LBB2687:
.LBI2616:
	.loc 5 214 5 view .LVU2117
	.loc 5 214 46 discriminator 1 view .LVU2118
.LBB2686:
.LBB2641:
.LBI2618:
	.loc 7 1152 5 view .LVU2119
.LBB2638:
.LBI2619:
	.loc 7 1117 5 view .LVU2120
.LBB2635:
.LBI2620:
	.loc 7 976 5 view .LVU2121
.LBB2632:
.LBI2621:
	.loc 7 926 5 view .LVU2122
.LBB2629:
	.loc 7 930 22 discriminator 1 view .LVU2123
.LBE2629:
.LBE2632:
.LBE2635:
.LBE2638:
.LBE2641:
	.loc 5 214 5 is_stmt 0 view .LVU2124
	movq	%rsp, %rbx
.LVL695:
	.loc 5 214 5 view .LVU2125
	leaq	80(%rsp), %rcx
.LVL696:
	.loc 5 214 5 view .LVU2126
	movq	%rbx, %rax
.LVL697:
	.p2align 4,,10
	.p2align 3
.L300:
.LBB2642:
.LBB2639:
.LBB2636:
.LBB2633:
.LBB2630:
.LBB2628:
.LBI2623:
	.loc 6 371 7 is_stmt 1 view .LVU2127
.LBB2627:
.LBI2624:
	.loc 6 473 7 view .LVU2128
.LBB2626:
	.loc 6 477 2 discriminator 2 view .LVU2129
	.loc 6 478 2 discriminator 2 view .LVU2130
	.loc 6 479 2 discriminator 2 view .LVU2131
	.loc 6 481 18 is_stmt 0 view .LVU2132
	movl	%edx, %edi
	xchgb	(%rax), %dil
.LVL698:
	.loc 6 481 18 view .LVU2133
.LBE2626:
.LBE2627:
.LBE2628:
	.loc 7 930 7 is_stmt 1 discriminator 2 view .LVU2134
	addq	$1, %rax
.LVL699:
	.loc 7 930 22 discriminator 1 view .LVU2135
	cmpq	%rcx, %rax
	jne	.L300
.LBE2630:
.LBE2633:
.LBE2636:
.LBE2639:
.LBE2642:
.LBB2643:
.LBB2644:
	.loc 5 245 13 is_stmt 0 view .LVU2136
	xorl	%esi, %esi
	.loc 5 244 13 view .LVU2137
	movl	$640, %edx
.LBE2644:
.LBE2643:
.LBB2684:
.LBB2640:
.LBB2637:
.LBB2634:
.LBB2631:
	movl	$10, %edi
.LBE2631:
.LBE2634:
.LBE2637:
.LBE2640:
.LBE2684:
.LBB2685:
.LBB2683:
.LBB2645:
.LBB2646:
.LBB2647:
	.loc 5 36 35 view .LVU2138
	xorl	%r9d, %r9d
	.loc 5 34 9 view .LVU2139
	movl	$1, %r8d
.LBE2647:
.LBE2646:
.LBB2653:
.LBB2654:
.LBB2655:
.LBB2656:
	.loc 5 189 36 view .LVU2140
	movl	$7, %r10d
	jmp	.L306
.LVL700:
	.p2align 4,,10
	.p2align 3
.L301:
	.loc 5 189 36 view .LVU2141
.LBE2656:
.LBE2655:
.LBE2654:
	.loc 5 259 29 view .LVU2142
	movl	%eax, %edx
.LVL701:
	.loc 5 258 29 view .LVU2143
	leal	1(%rsi,%rsi), %esi
.LVL702:
	.loc 5 258 29 view .LVU2144
.LBE2653:
.LBE2645:
	.loc 5 261 28 is_stmt 1 view .LVU2145
	testl	%edx, %edx
	jle	.L307
.LVL703:
.L306:
.LBB2671:
.LBB2669:
.LBI2646:
	.loc 5 28 19 view .LVU2146
.LBB2652:
	.loc 5 29 5 view .LVU2147
.LBB2648:
.LBI2648:
	.loc 5 10 19 view .LVU2148
.LBB2649:
	.loc 5 11 5 view .LVU2149
	.loc 5 11 16 is_stmt 0 view .LVU2150
	movl	%edx, %eax
.LBE2649:
.LBE2648:
	.loc 5 34 9 view .LVU2151
	movl	%r8d, %r11d
.LBB2651:
.LBB2650:
	.loc 5 11 16 view .LVU2152
	sarl	%eax
	.loc 5 11 7 view .LVU2153
	orl	%edx, %eax
.LVL704:
	.loc 5 12 5 is_stmt 1 view .LVU2154
	.loc 5 12 16 is_stmt 0 view .LVU2155
	movl	%eax, %ecx
	sarl	$2, %ecx
	.loc 5 12 7 view .LVU2156
	orl	%ecx, %eax
.LVL705:
	.loc 5 13 5 is_stmt 1 view .LVU2157
	.loc 5 13 16 is_stmt 0 view .LVU2158
	movl	%eax, %ecx
	sarl	$4, %ecx
	.loc 5 13 7 view .LVU2159
	orl	%ecx, %eax
.LVL706:
	.loc 5 14 5 is_stmt 1 view .LVU2160
	.loc 5 14 16 is_stmt 0 view .LVU2161
	movl	%eax, %ecx
	sarl	$8, %ecx
	.loc 5 14 7 view .LVU2162
	orl	%ecx, %eax
.LVL707:
	.loc 5 15 5 is_stmt 1 view .LVU2163
	.loc 5 15 16 is_stmt 0 view .LVU2164
	movl	%eax, %ecx
	sarl	$16, %ecx
	.loc 5 15 7 view .LVU2165
	orl	%ecx, %eax
.LVL708:
	.loc 5 16 5 is_stmt 1 view .LVU2166
	.loc 5 16 19 is_stmt 0 view .LVU2167
	movl	%eax, %ecx
	sarl	%ecx
	.loc 5 16 23 view .LVU2168
	subl	%ecx, %eax
.LVL709:
	.loc 5 16 23 view .LVU2169
.LBE2650:
.LBE2651:
	.loc 5 30 5 is_stmt 1 view .LVU2170
	.loc 5 30 9 is_stmt 0 view .LVU2171
	movl	%eax, %r12d
	.loc 5 32 21 view .LVU2172
	movl	%eax, %ecx
	.loc 5 30 9 view .LVU2173
	sarl	%r12d
.LVL710:
	.loc 5 32 5 is_stmt 1 view .LVU2174
	.loc 5 32 21 is_stmt 0 view .LVU2175
	andl	$-2, %ecx
	addl	%r12d, %ecx
	.loc 5 32 37 view .LVU2176
	cmpl	%edx, %ecx
	.loc 5 32 9 view .LVU2177
	setg	%cl
	.loc 5 32 37 view .LVU2178
	setg	%bpl
.LVL711:
	.loc 5 33 5 is_stmt 1 view .LVU2179
	.loc 5 34 5 view .LVU2180
	.loc 5 36 5 view .LVU2181
	.loc 5 32 9 is_stmt 0 view .LVU2182
	movzbl	%cl, %ecx
.LVL712:
	.loc 5 34 34 view .LVU2183
	addl	%ecx, %ecx
.LVL713:
	.loc 5 34 9 view .LVU2184
	subl	%ecx, %r11d
	.loc 5 36 62 view .LVU2185
	leal	-1(%rax), %ecx
	.loc 5 36 54 view .LVU2186
	movl	%r11d, %eax
.LVL714:
	.loc 5 36 54 view .LVU2187
	imull	%ecx, %eax
	.loc 5 36 35 view .LVU2188
	testb	%bpl, %bpl
	.loc 5 36 30 view .LVU2189
	leal	-1(%rdx,%r12), %ecx
.LVL715:
	.loc 5 36 35 view .LVU2190
	cmove	%r9d, %ecx
	.loc 5 36 9 view .LVU2191
	addl	%ecx, %eax
.LVL716:
	.loc 5 37 5 is_stmt 1 view .LVU2192
	.loc 5 37 5 is_stmt 0 view .LVU2193
.LBE2652:
.LBE2669:
.LBB2670:
	.loc 5 248 13 view .LVU2194
	cmpl	%eax, %edi
	jle	.L301
.LVL717:
.LBB2668:
.LBB2667:
.LBI2655:
	.loc 5 186 14 is_stmt 1 view .LVU2195
.LBB2666:
.LBB2657:
.LBB2658:
.LBB2659:
	.loc 6 505 24 is_stmt 0 view .LVU2196
.LBE2659:
.LBE2658:
.LBE2657:
	.loc 5 188 17 view .LVU2197
	movl	%esi, %ecx
	sarl	$31, %ecx
	shrl	$29, %ecx
	leal	(%rsi,%rcx), %r11d
	andl	$7, %r11d
	subl	%ecx, %r11d
	.loc 5 189 36 view .LVU2198
	movl	%r10d, %ecx
	subl	%r11d, %ecx
	.loc 5 189 30 view .LVU2199
	movl	%r8d, %r11d
	sall	%cl, %r11d
.LVL718:
.LBB2664:
.LBI2657:
	.loc 6 364 7 is_stmt 1 view .LVU2200
.LBB2662:
.LBI2658:
	.loc 6 498 7 view .LVU2201
.LBB2660:
	.loc 6 502 2 discriminator 2 view .LVU2202
	.loc 6 503 2 discriminator 2 view .LVU2203
.LBE2660:
.LBE2662:
.LBE2664:
	.loc 5 187 17 is_stmt 0 view .LVU2204
	testl	%esi, %esi
	leal	7(%rsi), %ecx
	cmovns	%esi, %ecx
	sarl	$3, %ecx
.LBB2665:
.LBB2663:
.LBB2661:
	.loc 6 505 25 view .LVU2205
	movslq	%ecx, %rcx
	.loc 6 505 24 view .LVU2206
	movzbl	(%rsp,%rcx), %ecx
.LVL719:
	.loc 6 505 24 view .LVU2207
.LBE2661:
.LBE2663:
.LBE2665:
.LBE2666:
.LBE2667:
	.loc 5 250 17 view .LVU2208
	notl	%ecx
.LVL720:
	.loc 5 250 17 view .LVU2209
	testb	%r11b, %cl
	jne	.L307
	.loc 5 252 47 view .LVU2210
	subl	%eax, %edx
.LVL721:
	.loc 5 253 27 view .LVU2211
	subl	%eax, %edi
.LVL722:
	.loc 5 251 33 view .LVU2212
	leal	2(%rsi,%rsi), %esi
.LVL723:
	.loc 5 252 33 view .LVU2213
	subl	$1, %edx
.LVL724:
	.loc 5 253 23 view .LVU2214
	subl	$1, %edi
.LVL725:
	.loc 5 253 23 view .LVU2215
.LBE2668:
.LBE2670:
.LBE2671:
	.loc 5 261 28 is_stmt 1 view .LVU2216
	testl	%edx, %edx
	jg	.L306
.LVL726:
.L307:
	.loc 5 263 27 view .LVU2217
.LBB2672:
.LBB2673:
.LBB2674:
	.loc 5 198 43 is_stmt 0 view .LVU2218
	movl	$1, %edi
.LVL727:
	.loc 5 198 43 view .LVU2219
.LBE2674:
.LBE2673:
.LBE2672:
	.loc 5 263 27 view .LVU2220
	testl	%esi, %esi
	jg	.L303
	.loc 5 263 27 view .LVU2221
	jmp	.L309
.LVL728:
	.p2align 4,,10
	.p2align 3
.L308:
	.loc 5 263 27 is_stmt 1 view .LVU2222
	testl	%esi, %esi
	je	.L309
.LVL729:
.L303:
.LBB2682:
	.loc 5 264 39 is_stmt 0 view .LVU2223
	leal	-1(%rsi), %eax
	movl	%esi, %edx
	.loc 5 264 17 view .LVU2224
	movl	%eax, %esi
.LVL730:
	.loc 5 264 17 view .LVU2225
	sarl	%esi
.LVL731:
	.loc 5 265 13 view .LVU2226
	andl	$1, %edx
.LVL732:
	.loc 5 265 13 view .LVU2227
	je	.L308
.LVL733:
.LBB2681:
.LBI2673:
	.loc 5 195 14 is_stmt 1 view .LVU2228
.LBB2680:
.LBB2675:
.LBI2675:
	.loc 6 653 7 view .LVU2229
.LBE2675:
	.loc 5 198 43 is_stmt 0 view .LVU2230
	movl	%esi, %ecx
	movl	%edi, %edx
	.loc 5 196 17 view .LVU2231
	sarl	$4, %eax
.LVL734:
	.loc 5 198 43 view .LVU2232
	notl	%ecx
.LBB2678:
.LBB2676:
	.loc 6 655 35 view .LVU2233
	cltq
	.loc 6 655 35 view .LVU2234
.LBE2676:
.LBE2678:
	.loc 5 198 43 view .LVU2235
	andl	$7, %ecx
	sall	%cl, %edx
	.loc 5 198 21 view .LVU2236
	notl	%edx
.LBB2679:
.LBB2677:
	.loc 6 655 34 view .LVU2237
	lock andb	%dl, (%rsp,%rax)
.LVL735:
	.loc 6 655 34 view .LVU2238
.LBE2677:
.LBE2679:
.LBE2680:
.LBE2681:
.LBE2682:
	.loc 5 263 27 is_stmt 1 view .LVU2239
	testl	%esi, %esi
	jne	.L303
.LVL736:
.L309:
	.loc 5 263 27 is_stmt 0 view .LVU2240
.LBE2683:
.LBE2685:
.LBE2686:
.LBE2687:
	.loc 4 60 5 is_stmt 1 view .LVU2241
.LBB2688:
.LBI2688:
	.loc 11 662 5 view .LVU2242
.LBB2689:
	.loc 11 667 18 is_stmt 0 view .LVU2243
	leaq	_ZSt4cout(%rip), %rbp
.LVL737:
	.loc 11 667 18 view .LVU2244
	movl	$23, %edx
	leaq	.LC5(%rip), %rsi
	movq	%rbp, %rdi
	call	_ZSt16__ostream_insertIcSt11char_traitsIcEERSt13basic_ostreamIT_T0_ES6_PKS3_l@PLT
.LVL738:
	.loc 11 667 18 view .LVU2245
.LBE2689:
.LBE2688:
.LBB2690:
.LBI2690:
	.loc 5 289 9 is_stmt 1 view .LVU2246
.LBB2691:
	.loc 5 291 13 is_stmt 0 view .LVU2247
	xorl	%r10d, %r10d
	.loc 5 290 28 view .LVU2248
	movl	$640, %esi
	.loc 5 290 13 view .LVU2249
	xorl	%edx, %edx
.LBB2692:
.LBB2693:
.LBB2694:
	.loc 5 189 36 view .LVU2250
	movl	$7, %r9d
	.loc 5 189 30 view .LVU2251
	movl	$1, %edi
.LBE2694:
.LBE2693:
.LBB2709:
.LBB2710:
	.loc 5 36 35 view .LVU2252
	xorl	%r8d, %r8d
.LVL739:
	.p2align 4,,10
	.p2align 3
.L304:
	.loc 5 36 35 view .LVU2253
.LBE2710:
.LBE2709:
.LBB2722:
.LBI2693:
	.loc 5 186 14 is_stmt 1 view .LVU2254
.LBB2707:
.LBB2695:
.LBB2696:
.LBB2697:
	.loc 6 505 24 is_stmt 0 view .LVU2255
.LBE2697:
.LBE2696:
.LBE2695:
	.loc 5 188 17 view .LVU2256
	movl	%edx, %ecx
	.loc 5 189 30 view .LVU2257
	movl	%edi, %r11d
	.loc 5 188 17 view .LVU2258
	sarl	$31, %ecx
	shrl	$29, %ecx
	leal	(%rdx,%rcx), %eax
	andl	$7, %eax
	subl	%ecx, %eax
	.loc 5 189 36 view .LVU2259
	movl	%r9d, %ecx
	subl	%eax, %ecx
	.loc 5 187 17 view .LVU2260
	leal	7(%rdx), %eax
	.loc 5 189 30 view .LVU2261
	sall	%cl, %r11d
.LVL740:
.LBB2704:
.LBI2695:
	.loc 6 364 7 is_stmt 1 view .LVU2262
.LBB2701:
.LBI2696:
	.loc 6 498 7 view .LVU2263
.LBB2698:
	.loc 6 502 2 discriminator 2 view .LVU2264
	.loc 6 503 2 discriminator 2 view .LVU2265
.LBE2698:
.LBE2701:
.LBE2704:
	.loc 5 187 17 is_stmt 0 view .LVU2266
	testl	%edx, %edx
	cmovns	%edx, %eax
	sarl	$3, %eax
.LBB2705:
.LBB2702:
.LBB2699:
	.loc 6 505 25 view .LVU2267
	cltq
	.loc 6 505 24 view .LVU2268
	movzbl	(%rsp,%rax), %ecx
.LBE2699:
.LBE2702:
.LBE2705:
.LBE2707:
.LBE2722:
.LBB2723:
.LBB2719:
.LBB2711:
.LBB2712:
	.loc 5 11 16 view .LVU2269
	movl	%esi, %eax
.LBE2712:
.LBE2711:
.LBE2719:
.LBE2723:
.LBB2724:
.LBB2708:
.LBB2706:
.LBB2703:
.LBB2700:
	.loc 6 505 24 view .LVU2270
.LVL741:
	.loc 6 505 24 view .LVU2271
.LBE2700:
.LBE2703:
.LBE2706:
.LBE2708:
.LBE2724:
.LBB2725:
.LBI2709:
	.loc 5 28 19 is_stmt 1 view .LVU2272
.LBB2720:
	.loc 5 29 5 view .LVU2273
.LBB2716:
.LBI2711:
	.loc 5 10 19 view .LVU2274
.LBB2713:
	.loc 5 11 5 view .LVU2275
	.loc 5 11 16 is_stmt 0 view .LVU2276
	sarl	%eax
	.loc 5 11 7 view .LVU2277
	orl	%esi, %eax
.LVL742:
	.loc 5 12 5 is_stmt 1 view .LVU2278
.LBE2713:
.LBE2716:
.LBE2720:
.LBE2725:
	.loc 5 296 13 is_stmt 0 view .LVU2279
	notl	%ecx
.LVL743:
.LBB2726:
.LBB2721:
.LBB2717:
.LBB2714:
	.loc 5 12 16 view .LVU2280
	movl	%eax, %r12d
	sarl	$2, %r12d
	.loc 5 12 7 view .LVU2281
	orl	%r12d, %eax
.LVL744:
	.loc 5 13 5 is_stmt 1 view .LVU2282
	.loc 5 13 16 is_stmt 0 view .LVU2283
	movl	%eax, %r12d
	sarl	$4, %r12d
	.loc 5 13 7 view .LVU2284
	orl	%r12d, %eax
.LVL745:
	.loc 5 14 5 is_stmt 1 view .LVU2285
	.loc 5 14 16 is_stmt 0 view .LVU2286
	movl	%eax, %r12d
	sarl	$8, %r12d
	.loc 5 14 7 view .LVU2287
	orl	%r12d, %eax
.LVL746:
	.loc 5 15 5 is_stmt 1 view .LVU2288
	.loc 5 15 16 is_stmt 0 view .LVU2289
	movl	%eax, %r12d
	sarl	$16, %r12d
	.loc 5 15 7 view .LVU2290
	orl	%r12d, %eax
.LVL747:
	.loc 5 16 5 is_stmt 1 view .LVU2291
	.loc 5 16 19 is_stmt 0 view .LVU2292
	movl	%eax, %r13d
	sarl	%r13d
	.loc 5 16 23 view .LVU2293
	subl	%r13d, %eax
.LVL748:
	.loc 5 16 23 view .LVU2294
.LBE2714:
.LBE2717:
	.loc 5 30 9 view .LVU2295
	movl	%eax, %r13d
.LBB2718:
.LBB2715:
	.loc 5 16 23 view .LVU2296
	movl	%eax, %r12d
.LVL749:
	.loc 5 16 23 view .LVU2297
.LBE2715:
.LBE2718:
	.loc 5 30 5 is_stmt 1 view .LVU2298
	.loc 5 32 21 is_stmt 0 view .LVU2299
	andl	$-2, %eax
.LVL750:
	.loc 5 30 9 view .LVU2300
	sarl	%r13d
.LVL751:
	.loc 5 32 5 is_stmt 1 view .LVU2301
	.loc 5 32 21 is_stmt 0 view .LVU2302
	addl	%r13d, %eax
	.loc 5 32 37 view .LVU2303
	cmpl	%esi, %eax
	.loc 5 34 9 view .LVU2304
	movl	%edi, %eax
	.loc 5 32 9 view .LVU2305
	setg	%r15b
	.loc 5 32 37 view .LVU2306
	setg	%r14b
.LVL752:
	.loc 5 33 5 is_stmt 1 view .LVU2307
	.loc 5 34 5 view .LVU2308
	.loc 5 36 5 view .LVU2309
	.loc 5 36 62 is_stmt 0 view .LVU2310
	subl	$1, %r12d
.LVL753:
	.loc 5 32 9 view .LVU2311
	movzbl	%r15b, %r15d
.LVL754:
	.loc 5 34 34 view .LVU2312
	addl	%r15d, %r15d
.LVL755:
	.loc 5 34 9 view .LVU2313
	subl	%r15d, %eax
	.loc 5 36 54 view .LVU2314
	imull	%r12d, %eax
	.loc 5 36 35 view .LVU2315
	testb	%r14b, %r14b
	.loc 5 36 30 view .LVU2316
	leal	-1(%rsi,%r13), %r12d
.LVL756:
	.loc 5 36 35 view .LVU2317
	cmove	%r8d, %r12d
	.loc 5 36 9 view .LVU2318
	addl	%r12d, %eax
.LVL757:
	.loc 5 37 5 is_stmt 1 view .LVU2319
	.loc 5 37 5 is_stmt 0 view .LVU2320
.LBE2721:
.LBE2726:
	.loc 5 296 13 view .LVU2321
	testb	%r11b, %cl
	je	.L376
	.loc 5 305 29 view .LVU2322
	leal	1(%rdx,%rdx), %edx
.LVL758:
	.loc 5 305 29 view .LVU2323
.LBE2692:
	.loc 5 308 28 is_stmt 1 view .LVU2324
	testl	%eax, %eax
	jle	.L312
.LVL759:
.L311:
	.loc 5 290 13 is_stmt 0 view .LVU2325
	movl	%eax, %esi
	jmp	.L304
.LVL760:
	.p2align 4,,10
	.p2align 3
.L376:
.LBB2727:
	.loc 5 301 43 view .LVU2326
	subl	%eax, %esi
.LVL761:
	.loc 5 299 21 view .LVU2327
	leal	1(%r10,%rax), %r10d
.LVL762:
	.loc 5 300 29 view .LVU2328
	leal	2(%rdx,%rdx), %edx
.LVL763:
	.loc 5 301 29 view .LVU2329
	leal	-1(%rsi), %eax
.LVL764:
	.loc 5 301 29 view .LVU2330
.LBE2727:
	.loc 5 308 28 is_stmt 1 view .LVU2331
	testl	%eax, %eax
	jg	.L311
.L312:
.LVL765:
	.loc 5 308 28 is_stmt 0 view .LVU2332
.LBE2691:
.LBE2690:
	.loc 4 60 52 discriminator 2 view .LVU2333
	movl	%r10d, %esi
	movq	%rbp, %rdi
	call	_ZNSolsEi@PLT
.LVL766:
	.loc 4 60 52 discriminator 2 view .LVU2334
	movq	%rax, %r12
.LVL767:
.LBB2728:
.LBI2728:
	.loc 11 110 7 is_stmt 1 view .LVU2335
.LBB2729:
.LBI2729:
	.loc 11 735 5 view .LVU2336
.LBB2730:
	.loc 11 736 39 is_stmt 0 view .LVU2337
	movq	(%rax), %rax
.LVL768:
	.loc 11 736 39 view .LVU2338
	movq	-24(%rax), %rax
	movq	240(%r12,%rax), %r13
.LVL769:
.LBB2731:
.LBI2731:
	.loc 12 449 7 is_stmt 1 view .LVU2339
.LBB2732:
.LBI2732:
	.loc 12 47 5 view .LVU2340
.LBB2733:
	.loc 12 49 7 is_stmt 0 view .LVU2341
	testq	%r13, %r13
	je	.L320
.LVL770:
	.loc 12 49 7 view .LVU2342
.LBE2733:
.LBE2732:
.LBB2735:
.LBI2735:
	.loc 1 880 7 is_stmt 1 view .LVU2343
.LBB2736:
	.loc 1 882 2 view .LVU2344
	cmpb	$0, 56(%r13)
	je	.L315
	.loc 1 883 4 view .LVU2345
.LBE2736:
.LBE2735:
.LBE2731:
	.loc 11 736 19 is_stmt 0 discriminator 1 view .LVU2346
	movsbl	67(%r13), %esi
.LVL771:
.L316:
	.loc 11 736 19 discriminator 1 view .LVU2347
	movq	%r12, %rdi
	call	_ZNSo3putEc@PLT
.LVL772:
	movq	%rax, %rdi
.LVL773:
.LBB2742:
.LBI2742:
	.loc 11 757 5 is_stmt 1 view .LVU2348
.LBB2743:
	.loc 11 758 24 is_stmt 0 view .LVU2349
	call	_ZNSo5flushEv@PLT
.LVL774:
	.loc 11 758 24 view .LVU2350
.LBE2743:
.LBE2742:
.LBE2730:
.LBE2729:
.LBE2728:
	.loc 4 62 5 is_stmt 1 view .LVU2351
	movl	$10, %edx
	movl	$500, %esi
	movq	%rbx, %rdi
	call	_Z12writeAndReadILi80EEbR14BoundedMinReg2IXT_EEii
.LVL775:
	.loc 4 62 5 is_stmt 0 discriminator 1 view .LVU2352
	testb	%al, %al
	je	.L377
	.loc 4 63 5 is_stmt 1 view .LVU2353
	movl	$10, %edx
	movl	$16, %esi
	movq	%rbx, %rdi
	call	_Z12writeAndReadILi80EEbR14BoundedMinReg2IXT_EEii
.LVL776:
	.loc 4 63 5 is_stmt 0 discriminator 1 view .LVU2354
	testb	%al, %al
	je	.L378
	.loc 4 64 5 is_stmt 1 view .LVU2355
	movl	$10, %edx
	movl	$-1, %esi
	movq	%rbx, %rdi
	call	_Z12writeAndReadILi80EEbR14BoundedMinReg2IXT_EEii
.LVL777:
	.loc 4 64 5 is_stmt 0 discriminator 1 view .LVU2356
	testb	%al, %al
	je	.L379
	.loc 4 66 5 is_stmt 1 view .LVU2357
.LVL778:
.LBB2750:
.LBI2750:
	.loc 11 110 7 view .LVU2358
.LBB2751:
.LBI2751:
	.loc 11 735 5 view .LVU2359
.LBB2752:
	.loc 11 736 39 is_stmt 0 view .LVU2360
	movq	_ZSt4cout(%rip), %rax
	movq	-24(%rax), %rax
	movq	240(%rbp,%rax), %r12
.LVL779:
.LBB2753:
.LBI2753:
	.loc 12 449 7 is_stmt 1 view .LVU2361
.LBB2754:
.LBI2754:
	.loc 12 47 5 view .LVU2362
.LBB2755:
	.loc 12 49 7 is_stmt 0 view .LVU2363
	testq	%r12, %r12
	je	.L320
.LVL780:
	.loc 12 49 7 view .LVU2364
.LBE2755:
.LBE2754:
.LBB2756:
.LBI2756:
	.loc 1 880 7 is_stmt 1 view .LVU2365
.LBB2757:
	.loc 1 882 2 view .LVU2366
	cmpb	$0, 56(%r12)
	je	.L321
	.loc 1 883 4 view .LVU2367
.LBE2757:
.LBE2756:
.LBE2753:
	.loc 11 736 19 is_stmt 0 discriminator 1 view .LVU2368
	movsbl	67(%r12), %esi
.LVL781:
.L322:
	.loc 11 736 19 discriminator 1 view .LVU2369
	movq	%rbp, %rdi
	call	_ZNSo3putEc@PLT
.LVL782:
	movq	%rax, %rdi
.LVL783:
.LBB2762:
.LBI2762:
	.loc 11 757 5 is_stmt 1 view .LVU2370
.LBB2763:
	.loc 11 758 24 is_stmt 0 view .LVU2371
	call	_ZNSo5flushEv@PLT
.LVL784:
	.loc 11 758 24 view .LVU2372
.LBE2763:
.LBE2762:
.LBE2752:
.LBE2751:
.LBE2750:
	.loc 4 68 5 is_stmt 1 view .LVU2373
	movl	$10, %edx
	movl	$10, %esi
	movq	%rbx, %rdi
	call	_Z12writeAndReadILi80EEbR14BoundedMinReg2IXT_EEii
.LVL785:
	.loc 4 68 5 is_stmt 0 discriminator 1 view .LVU2374
	testb	%al, %al
	je	.L380
	.loc 4 69 5 is_stmt 1 view .LVU2375
	movl	$9, %edx
	movl	$9, %esi
	movq	%rbx, %rdi
	call	_Z12writeAndReadILi80EEbR14BoundedMinReg2IXT_EEii
.LVL786:
	.loc 4 69 5 is_stmt 0 discriminator 1 view .LVU2376
	testb	%al, %al
	je	.L381
	.loc 4 70 5 is_stmt 1 view .LVU2377
	movl	$9, %edx
	movl	$10, %esi
	movq	%rbx, %rdi
	call	_Z12writeAndReadILi80EEbR14BoundedMinReg2IXT_EEii
.LVL787:
	.loc 4 70 5 is_stmt 0 discriminator 1 view .LVU2378
	testb	%al, %al
	je	.L382
	.loc 4 72 5 is_stmt 1 view .LVU2379
.LVL788:
.LBB2767:
.LBI2767:
	.loc 11 110 7 view .LVU2380
.LBB2768:
.LBI2768:
	.loc 11 735 5 view .LVU2381
.LBB2769:
	.loc 11 736 39 is_stmt 0 view .LVU2382
	movq	_ZSt4cout(%rip), %rax
	movq	-24(%rax), %rax
	movq	240(%rbp,%rax), %r12
.LVL789:
.LBB2770:
.LBI2770:
	.loc 12 449 7 is_stmt 1 view .LVU2383
.LBB2771:
.LBI2771:
	.loc 12 47 5 view .LVU2384
.LBB2772:
	.loc 12 49 7 is_stmt 0 view .LVU2385
	testq	%r12, %r12
	je	.L320
.LVL790:
	.loc 12 49 7 view .LVU2386
.LBE2772:
.LBE2771:
.LBB2773:
.LBI2773:
	.loc 1 880 7 is_stmt 1 view .LVU2387
.LBB2774:
	.loc 1 882 2 view .LVU2388
	cmpb	$0, 56(%r12)
	je	.L326
	.loc 1 883 4 view .LVU2389
.LBE2774:
.LBE2773:
.LBE2770:
	.loc 11 736 19 is_stmt 0 discriminator 1 view .LVU2390
	movsbl	67(%r12), %esi
.LVL791:
.L327:
	.loc 11 736 19 discriminator 1 view .LVU2391
	movq	%rbp, %rdi
	call	_ZNSo3putEc@PLT
.LVL792:
	movq	%rax, %rdi
.LVL793:
.LBB2779:
.LBI2779:
	.loc 11 757 5 is_stmt 1 view .LVU2392
.LBB2780:
	.loc 11 758 24 is_stmt 0 view .LVU2393
	call	_ZNSo5flushEv@PLT
.LVL794:
	.loc 11 758 24 view .LVU2394
.LBE2780:
.LBE2779:
.LBE2769:
.LBE2768:
.LBE2767:
	.loc 4 74 5 is_stmt 1 view .LVU2395
	movl	$9, %edx
	movl	$500, %esi
	movq	%rbx, %rdi
	call	_Z12writeAndReadILi80EEbR14BoundedMinReg2IXT_EEii
.LVL795:
	.loc 4 74 5 is_stmt 0 discriminator 1 view .LVU2396
	testb	%al, %al
	je	.L383
	.loc 4 75 5 is_stmt 1 view .LVU2397
	movl	$4, %edx
	movl	$4, %esi
	movq	%rbx, %rdi
	call	_Z12writeAndReadILi80EEbR14BoundedMinReg2IXT_EEii
.LVL796:
	.loc 4 75 5 is_stmt 0 discriminator 1 view .LVU2398
	testb	%al, %al
	je	.L384
.LBB2784:
	.loc 4 76 13 view .LVU2399
	movl	$5, %r12d
	.p2align 4,,10
	.p2align 3
.L329:
.LVL797:
	.loc 4 77 9 is_stmt 1 view .LVU2400
	movl	$4, %edx
	movl	%r12d, %esi
	movq	%rbx, %rdi
	call	_Z12writeAndReadILi80EEbR14BoundedMinReg2IXT_EEii
.LVL798:
	.loc 4 77 9 is_stmt 0 discriminator 1 view .LVU2401
	testb	%al, %al
	je	.L385
	.loc 4 76 5 is_stmt 1 discriminator 2 view .LVU2402
	addl	$1, %r12d
.LVL799:
	.loc 4 76 21 discriminator 1 view .LVU2403
	cmpl	$12, %r12d
	jne	.L329
.LBE2784:
	.loc 4 80 5 view .LVU2404
.LVL800:
.LBB2785:
.LBI2785:
	.loc 11 110 7 view .LVU2405
.LBB2786:
.LBI2786:
	.loc 11 735 5 view .LVU2406
.LBB2787:
	.loc 11 736 39 is_stmt 0 view .LVU2407
	movq	_ZSt4cout(%rip), %rax
	movq	-24(%rax), %rax
	movq	240(%rbp,%rax), %r12
.LVL801:
.LBB2788:
.LBI2788:
	.loc 12 449 7 is_stmt 1 view .LVU2408
.LBB2789:
.LBI2789:
	.loc 12 47 5 view .LVU2409
.LBB2790:
	.loc 12 49 7 is_stmt 0 view .LVU2410
	testq	%r12, %r12
	je	.L320
.LVL802:
	.loc 12 49 7 view .LVU2411
.LBE2790:
.LBE2789:
.LBB2791:
.LBI2791:
	.loc 1 880 7 is_stmt 1 view .LVU2412
.LBB2792:
	.loc 1 882 2 view .LVU2413
	cmpb	$0, 56(%r12)
	je	.L331
	.loc 1 883 4 view .LVU2414
.LBE2792:
.LBE2791:
.LBE2788:
	.loc 11 736 19 is_stmt 0 discriminator 1 view .LVU2415
	movsbl	67(%r12), %esi
.LVL803:
.L332:
	.loc 11 736 19 discriminator 1 view .LVU2416
	movq	%rbp, %rdi
	call	_ZNSo3putEc@PLT
.LVL804:
	movq	%rax, %rdi
.LVL805:
.LBB2797:
.LBI2797:
	.loc 11 757 5 is_stmt 1 view .LVU2417
.LBB2798:
	.loc 11 758 24 is_stmt 0 view .LVU2418
	call	_ZNSo5flushEv@PLT
.LVL806:
	.loc 11 758 24 view .LVU2419
.LBE2798:
.LBE2797:
.LBE2787:
.LBE2786:
.LBE2785:
	.loc 4 82 5 is_stmt 1 view .LVU2420
	movl	$2, %edx
	movl	$2, %esi
	movq	%rbx, %rdi
	call	_Z12writeAndReadILi80EEbR14BoundedMinReg2IXT_EEii
.LVL807:
	.loc 4 82 5 is_stmt 0 discriminator 1 view .LVU2421
	testb	%al, %al
	je	.L386
.LBB2802:
	.loc 4 83 13 view .LVU2422
	movl	$3, %r12d
	.p2align 4,,10
	.p2align 3
.L333:
.LVL808:
	.loc 4 84 9 is_stmt 1 view .LVU2423
	movl	$2, %edx
	movl	%r12d, %esi
	movq	%rbx, %rdi
	call	_Z12writeAndReadILi80EEbR14BoundedMinReg2IXT_EEii
.LVL809:
	.loc 4 84 9 is_stmt 0 discriminator 1 view .LVU2424
	testb	%al, %al
	je	.L387
	.loc 4 83 5 is_stmt 1 discriminator 2 view .LVU2425
	addl	$1, %r12d
.LVL810:
	.loc 4 83 21 discriminator 1 view .LVU2426
	cmpl	$12, %r12d
	jne	.L333
.LBE2802:
	.loc 4 86 5 view .LVU2427
	movl	$2, %edx
	movl	$-1, %esi
	movq	%rbx, %rdi
	call	_Z12writeAndReadILi80EEbR14BoundedMinReg2IXT_EEii
.LVL811:
	.loc 4 86 5 is_stmt 0 discriminator 1 view .LVU2428
	testb	%al, %al
	je	.L388
	.loc 4 87 5 is_stmt 1 view .LVU2429
	movl	$2, %edx
	movl	$500, %esi
	movq	%rbx, %rdi
	call	_Z12writeAndReadILi80EEbR14BoundedMinReg2IXT_EEii
.LVL812:
	.loc 4 87 5 is_stmt 0 discriminator 1 view .LVU2430
	testb	%al, %al
	je	.L389
	.loc 4 89 5 is_stmt 1 view .LVU2431
.LVL813:
.LBB2803:
.LBI2803:
	.loc 11 110 7 view .LVU2432
.LBB2804:
.LBI2804:
	.loc 11 735 5 view .LVU2433
.LBB2805:
	.loc 11 736 39 is_stmt 0 view .LVU2434
	movq	_ZSt4cout(%rip), %rax
	movq	-24(%rax), %rax
	movq	240(%rbp,%rax), %r12
.LVL814:
.LBB2806:
.LBI2806:
	.loc 12 449 7 is_stmt 1 view .LVU2435
.LBB2807:
.LBI2807:
	.loc 12 47 5 view .LVU2436
.LBB2808:
	.loc 12 49 7 is_stmt 0 view .LVU2437
	testq	%r12, %r12
	je	.L320
.LVL815:
	.loc 12 49 7 view .LVU2438
.LBE2808:
.LBE2807:
.LBB2809:
.LBI2809:
	.loc 1 880 7 is_stmt 1 view .LVU2439
.LBB2810:
	.loc 1 882 2 view .LVU2440
	cmpb	$0, 56(%r12)
	je	.L337
	.loc 1 883 4 view .LVU2441
.LBE2810:
.LBE2809:
.LBE2806:
	.loc 11 736 19 is_stmt 0 discriminator 1 view .LVU2442
	movsbl	67(%r12), %esi
.LVL816:
.L338:
	.loc 11 736 19 discriminator 1 view .LVU2443
	movq	%rbp, %rdi
	call	_ZNSo3putEc@PLT
.LVL817:
	movq	%rax, %rdi
.LVL818:
.LBB2815:
.LBI2815:
	.loc 11 757 5 is_stmt 1 view .LVU2444
.LBB2816:
	.loc 11 758 24 is_stmt 0 view .LVU2445
	call	_ZNSo5flushEv@PLT
.LVL819:
	.loc 11 758 24 view .LVU2446
.LBE2816:
.LBE2815:
.LBE2805:
.LBE2804:
.LBE2803:
	.loc 4 91 5 is_stmt 1 view .LVU2447
	xorl	%edx, %edx
	xorl	%esi, %esi
	movq	%rbx, %rdi
	call	_Z12writeAndReadILi80EEbR14BoundedMinReg2IXT_EEii
.LVL820:
	.loc 4 91 5 is_stmt 0 discriminator 1 view .LVU2448
	testb	%al, %al
	je	.L390
.LBB2820:
	.loc 4 92 13 view .LVU2449
	movl	$3, %ebp
	.p2align 4,,10
	.p2align 3
.L339:
.LVL821:
	.loc 4 93 9 is_stmt 1 view .LVU2450
	xorl	%edx, %edx
	movl	%ebp, %esi
	movq	%rbx, %rdi
	call	_Z12writeAndReadILi80EEbR14BoundedMinReg2IXT_EEii
.LVL822:
	.loc 4 93 9 is_stmt 0 discriminator 1 view .LVU2451
	testb	%al, %al
	je	.L391
	.loc 4 92 5 is_stmt 1 discriminator 2 view .LVU2452
	addl	$1, %ebp
.LVL823:
	.loc 4 92 21 discriminator 1 view .LVU2453
	cmpl	$12, %ebp
	jne	.L339
.LBE2820:
	.loc 4 95 5 view .LVU2454
	xorl	%edx, %edx
	movl	$-1, %esi
	movq	%rbx, %rdi
	call	_Z12writeAndReadILi80EEbR14BoundedMinReg2IXT_EEii
.LVL824:
	.loc 4 95 5 is_stmt 0 discriminator 1 view .LVU2455
	testb	%al, %al
	je	.L392
	.loc 4 96 5 is_stmt 1 view .LVU2456
	xorl	%edx, %edx
	movl	$1000, %esi
	movq	%rbx, %rdi
	call	_Z12writeAndReadILi80EEbR14BoundedMinReg2IXT_EEii
.LVL825:
	.loc 4 96 5 is_stmt 0 discriminator 1 view .LVU2457
	testb	%al, %al
	je	.L393
	.loc 4 97 1 view .LVU2458
	movq	88(%rsp), %rax
	subq	%fs:40, %rax
	jne	.L375
	addq	$104, %rsp
	.cfi_remember_state
	.cfi_def_cfa_offset 56
	popq	%rbx
	.cfi_def_cfa_offset 48
	popq	%rbp
	.cfi_def_cfa_offset 40
.LVL826:
	.loc 4 97 1 view .LVU2459
	popq	%r12
	.cfi_def_cfa_offset 32
	popq	%r13
	.cfi_def_cfa_offset 24
	popq	%r14
	.cfi_def_cfa_offset 16
.LVL827:
	.loc 4 97 1 view .LVU2460
	popq	%r15
	.cfi_def_cfa_offset 8
	ret
.LVL828:
	.p2align 4,,10
	.p2align 3
.L315:
	.cfi_restore_state
.LBB2821:
.LBB2748:
.LBB2746:
.LBB2744:
.LBB2740:
.LBB2739:
.LBB2737:
.LBI2737:
	.loc 1 880 7 is_stmt 1 view .LVU2461
.LBB2738:
	.loc 1 884 2 view .LVU2462
	.loc 1 884 21 is_stmt 0 view .LVU2463
	movq	%r13, %rdi
	call	_ZNKSt5ctypeIcE13_M_widen_initEv@PLT
.LVL829:
	.loc 1 885 2 is_stmt 1 view .LVU2464
	.loc 1 885 23 is_stmt 0 view .LVU2465
	movq	0(%r13), %rax
	movl	$10, %esi
	leaq	_ZNKSt5ctypeIcE8do_widenEc(%rip), %rdx
	movq	48(%rax), %rax
	cmpq	%rdx, %rax
	je	.L316
	movq	%r13, %rdi
	call	*%rax
.LVL830:
.LBE2738:
.LBE2737:
.LBE2739:
.LBE2740:
.LBE2744:
	.loc 11 736 19 discriminator 1 view .LVU2466
	movsbl	%al, %esi
	jmp	.L316
.LVL831:
	.p2align 4,,10
	.p2align 3
.L321:
	.loc 11 736 19 discriminator 1 view .LVU2467
.LBE2746:
.LBE2748:
.LBE2821:
.LBB2822:
.LBB2766:
.LBB2765:
.LBB2764:
.LBB2761:
.LBB2760:
.LBB2758:
.LBI2758:
	.loc 1 880 7 is_stmt 1 view .LVU2468
.LBB2759:
	.loc 1 884 2 view .LVU2469
	.loc 1 884 21 is_stmt 0 view .LVU2470
	movq	%r12, %rdi
	call	_ZNKSt5ctypeIcE13_M_widen_initEv@PLT
.LVL832:
	.loc 1 885 2 is_stmt 1 view .LVU2471
	.loc 1 885 23 is_stmt 0 view .LVU2472
	movq	(%r12), %rax
	movl	$10, %esi
	leaq	_ZNKSt5ctypeIcE8do_widenEc(%rip), %rdx
	movq	48(%rax), %rax
	cmpq	%rdx, %rax
	je	.L322
	movq	%r12, %rdi
	call	*%rax
.LVL833:
.LBE2759:
.LBE2758:
.LBE2760:
.LBE2761:
.LBE2764:
	.loc 11 736 19 discriminator 1 view .LVU2473
	movsbl	%al, %esi
	jmp	.L322
.LVL834:
	.p2align 4,,10
	.p2align 3
.L326:
	.loc 11 736 19 discriminator 1 view .LVU2474
.LBE2765:
.LBE2766:
.LBE2822:
.LBB2823:
.LBB2783:
.LBB2782:
.LBB2781:
.LBB2778:
.LBB2777:
.LBB2775:
.LBI2775:
	.loc 1 880 7 is_stmt 1 view .LVU2475
.LBB2776:
	.loc 1 884 2 view .LVU2476
	.loc 1 884 21 is_stmt 0 view .LVU2477
	movq	%r12, %rdi
	call	_ZNKSt5ctypeIcE13_M_widen_initEv@PLT
.LVL835:
	.loc 1 885 2 is_stmt 1 view .LVU2478
	.loc 1 885 23 is_stmt 0 view .LVU2479
	movq	(%r12), %rax
	movl	$10, %esi
	leaq	_ZNKSt5ctypeIcE8do_widenEc(%rip), %rdx
	movq	48(%rax), %rax
	cmpq	%rdx, %rax
	je	.L327
	movq	%r12, %rdi
	call	*%rax
.LVL836:
.LBE2776:
.LBE2775:
.LBE2777:
.LBE2778:
.LBE2781:
	.loc 11 736 19 discriminator 1 view .LVU2480
	movsbl	%al, %esi
	jmp	.L327
.LVL837:
	.p2align 4,,10
	.p2align 3
.L331:
	.loc 11 736 19 discriminator 1 view .LVU2481
.LBE2782:
.LBE2783:
.LBE2823:
.LBB2824:
.LBB2801:
.LBB2800:
.LBB2799:
.LBB2796:
.LBB2795:
.LBB2793:
.LBI2793:
	.loc 1 880 7 is_stmt 1 view .LVU2482
.LBB2794:
	.loc 1 884 2 view .LVU2483
	.loc 1 884 21 is_stmt 0 view .LVU2484
	movq	%r12, %rdi
	call	_ZNKSt5ctypeIcE13_M_widen_initEv@PLT
.LVL838:
	.loc 1 885 2 is_stmt 1 view .LVU2485
	.loc 1 885 23 is_stmt 0 view .LVU2486
	movq	(%r12), %rax
	movl	$10, %esi
	leaq	_ZNKSt5ctypeIcE8do_widenEc(%rip), %rdx
	movq	48(%rax), %rax
	cmpq	%rdx, %rax
	je	.L332
	movq	%r12, %rdi
	call	*%rax
.LVL839:
.LBE2794:
.LBE2793:
.LBE2795:
.LBE2796:
.LBE2799:
	.loc 11 736 19 discriminator 1 view .LVU2487
	movsbl	%al, %esi
	jmp	.L332
.LVL840:
	.p2align 4,,10
	.p2align 3
.L337:
	.loc 11 736 19 discriminator 1 view .LVU2488
.LBE2800:
.LBE2801:
.LBE2824:
.LBB2825:
.LBB2819:
.LBB2818:
.LBB2817:
.LBB2814:
.LBB2813:
.LBB2811:
.LBI2811:
	.loc 1 880 7 is_stmt 1 view .LVU2489
.LBB2812:
	.loc 1 884 2 view .LVU2490
	.loc 1 884 21 is_stmt 0 view .LVU2491
	movq	%r12, %rdi
	call	_ZNKSt5ctypeIcE13_M_widen_initEv@PLT
.LVL841:
	.loc 1 885 2 is_stmt 1 view .LVU2492
	.loc 1 885 23 is_stmt 0 view .LVU2493
	movq	(%r12), %rax
	movl	$10, %esi
	leaq	_ZNKSt5ctypeIcE8do_widenEc(%rip), %rdx
	movq	48(%rax), %rax
	cmpq	%rdx, %rax
	je	.L338
	movq	%r12, %rdi
	call	*%rax
.LVL842:
.LBE2812:
.LBE2811:
.LBE2813:
.LBE2814:
.LBE2817:
	.loc 11 736 19 discriminator 1 view .LVU2494
	movsbl	%al, %esi
	jmp	.L338
.LVL843:
.L387:
	.loc 11 736 19 discriminator 1 view .LVU2495
.LBE2818:
.LBE2819:
.LBE2825:
.LBB2826:
	.loc 4 84 9 discriminator 2 view .LVU2496
	leaq	.LC24(%rip), %rcx
	movl	$84, %edx
	leaq	.LC1(%rip), %rsi
	leaq	.LC35(%rip), %rdi
	call	__assert_fail@PLT
.LVL844:
.L391:
	.loc 4 84 9 discriminator 2 view .LVU2497
.LBE2826:
.LBB2827:
	.loc 4 93 9 discriminator 2 view .LVU2498
	leaq	.LC24(%rip), %rcx
	movl	$93, %edx
	leaq	.LC1(%rip), %rsi
	leaq	.LC39(%rip), %rdi
	call	__assert_fail@PLT
.LVL845:
.L385:
	.loc 4 93 9 discriminator 2 view .LVU2499
.LBE2827:
.LBB2828:
	.loc 4 77 9 discriminator 2 view .LVU2500
	leaq	.LC24(%rip), %rcx
	movl	$77, %edx
	leaq	.LC1(%rip), %rsi
	leaq	.LC33(%rip), %rdi
	call	__assert_fail@PLT
.LVL846:
.L320:
	.loc 4 77 9 discriminator 2 view .LVU2501
.LBE2828:
.LBB2829:
.LBB2749:
.LBB2747:
.LBB2745:
.LBB2741:
.LBB2734:
	.loc 12 50 18 view .LVU2502
	movq	88(%rsp), %rax
	subq	%fs:40, %rax
	jne	.L375
	call	_ZSt16__throw_bad_castv@PLT
.LVL847:
.L388:
	.loc 12 50 18 view .LVU2503
.LBE2734:
.LBE2741:
.LBE2745:
.LBE2747:
.LBE2749:
.LBE2829:
	.loc 4 86 5 discriminator 2 view .LVU2504
	leaq	.LC24(%rip), %rcx
	movl	$86, %edx
	leaq	.LC1(%rip), %rsi
	leaq	.LC36(%rip), %rdi
	call	__assert_fail@PLT
.LVL848:
.L377:
	.loc 4 62 5 discriminator 2 view .LVU2505
	leaq	.LC24(%rip), %rcx
	movl	$62, %edx
	leaq	.LC1(%rip), %rsi
	leaq	.LC25(%rip), %rdi
	call	__assert_fail@PLT
.LVL849:
.L375:
	.loc 4 97 1 view .LVU2506
	call	__stack_chk_fail@PLT
.LVL850:
.L392:
	.loc 4 95 5 discriminator 2 view .LVU2507
	leaq	.LC24(%rip), %rcx
	movl	$95, %edx
	leaq	.LC1(%rip), %rsi
	leaq	.LC40(%rip), %rdi
	call	__assert_fail@PLT
.LVL851:
.L389:
	.loc 4 87 5 discriminator 2 view .LVU2508
	leaq	.LC24(%rip), %rcx
	movl	$87, %edx
	leaq	.LC1(%rip), %rsi
	leaq	.LC37(%rip), %rdi
	call	__assert_fail@PLT
.LVL852:
.L379:
	.loc 4 64 5 discriminator 2 view .LVU2509
	leaq	.LC24(%rip), %rcx
	movl	$64, %edx
	leaq	.LC1(%rip), %rsi
	leaq	.LC27(%rip), %rdi
	call	__assert_fail@PLT
.LVL853:
.L378:
	.loc 4 63 5 discriminator 2 view .LVU2510
	leaq	.LC24(%rip), %rcx
	movl	$63, %edx
	leaq	.LC1(%rip), %rsi
	leaq	.LC26(%rip), %rdi
	call	__assert_fail@PLT
.LVL854:
.L393:
	.loc 4 96 5 discriminator 2 view .LVU2511
	leaq	.LC24(%rip), %rcx
	movl	$96, %edx
	leaq	.LC1(%rip), %rsi
	leaq	.LC41(%rip), %rdi
	call	__assert_fail@PLT
.LVL855:
.L381:
	.loc 4 69 5 discriminator 2 view .LVU2512
	leaq	.LC24(%rip), %rcx
	movl	$69, %edx
	leaq	.LC1(%rip), %rsi
	leaq	.LC29(%rip), %rdi
	call	__assert_fail@PLT
.LVL856:
.L380:
	.loc 4 68 5 discriminator 2 view .LVU2513
	leaq	.LC24(%rip), %rcx
	movl	$68, %edx
	leaq	.LC1(%rip), %rsi
	leaq	.LC28(%rip), %rdi
	call	__assert_fail@PLT
.LVL857:
.L386:
	.loc 4 82 5 discriminator 2 view .LVU2514
	leaq	.LC24(%rip), %rcx
	movl	$82, %edx
	leaq	.LC1(%rip), %rsi
	leaq	.LC34(%rip), %rdi
	call	__assert_fail@PLT
.LVL858:
.L382:
	.loc 4 70 5 discriminator 2 view .LVU2515
	leaq	.LC24(%rip), %rcx
	movl	$70, %edx
	leaq	.LC1(%rip), %rsi
	leaq	.LC30(%rip), %rdi
	call	__assert_fail@PLT
.LVL859:
.L384:
	.loc 4 75 5 discriminator 2 view .LVU2516
	leaq	.LC24(%rip), %rcx
	movl	$75, %edx
	leaq	.LC1(%rip), %rsi
	leaq	.LC32(%rip), %rdi
	call	__assert_fail@PLT
.LVL860:
.L383:
	.loc 4 74 5 discriminator 2 view .LVU2517
	leaq	.LC24(%rip), %rcx
	movl	$74, %edx
	leaq	.LC1(%rip), %rsi
	leaq	.LC31(%rip), %rdi
	call	__assert_fail@PLT
.LVL861:
.L390:
	.loc 4 91 5 discriminator 2 view .LVU2518
	leaq	.LC24(%rip), %rcx
	movl	$91, %edx
	leaq	.LC1(%rip), %rsi
	leaq	.LC38(%rip), %rdi
	call	__assert_fail@PLT
.LVL862:
	.cfi_endproc
.LFE2698:
	.size	_Z7regTestv, .-_Z7regTestv
	.section	.text.startup,"ax",@progbits
	.p2align 4
	.globl	main
	.type	main, @function
main:
.LFB2700:
	.loc 4 103 11 is_stmt 1 view -0
	.cfi_startproc
	.loc 4 105 5 view .LVU2520
	.loc 4 103 11 is_stmt 0 view .LVU2521
	subq	$8, %rsp
	.cfi_def_cfa_offset 16
	.loc 4 105 12 view .LVU2522
	call	_Z7regTestv
.LVL863:
	.loc 4 106 5 is_stmt 1 view .LVU2523
	.loc 4 106 13 is_stmt 0 view .LVU2524
	call	_Z8regTest2v
.LVL864:
	.loc 4 107 5 is_stmt 1 view .LVU2525
	.loc 4 107 17 is_stmt 0 view .LVU2526
	call	_Z12parallelTestv
.LVL865:
	.loc 4 108 1 view .LVU2527
	xorl	%eax, %eax
	addq	$8, %rsp
	.cfi_def_cfa_offset 8
	ret
	.cfi_endproc
.LFE2700:
	.size	main, .-main
	.section	.text._Z12writeAndReadILi1EEbR14BoundedMinReg2IXT_EEii,"axG",@progbits,_Z12writeAndReadILi1EEbR14BoundedMinReg2IXT_EEii,comdat
	.p2align 4
	.weak	_Z12writeAndReadILi1EEbR14BoundedMinReg2IXT_EEii
	.type	_Z12writeAndReadILi1EEbR14BoundedMinReg2IXT_EEii, @function
_Z12writeAndReadILi1EEbR14BoundedMinReg2IXT_EEii:
.LVL866:
.LFB3085:
	.loc 4 51 6 is_stmt 1 view -0
	.cfi_startproc
	.cfi_personality 0x9b,DW.ref.__gxx_personality_v0
	.cfi_lsda 0x1b,.LLSDA3085
	.loc 4 51 6 is_stmt 0 view .LVU2529
	pushq	%r15
	.cfi_def_cfa_offset 16
	.cfi_offset 15, -16
	movq	%rdi, %r11
	movl	%edx, %r15d
	pushq	%r14
	.cfi_def_cfa_offset 24
	.cfi_offset 14, -24
	pushq	%r13
	.cfi_def_cfa_offset 32
	.cfi_offset 13, -32
	pushq	%r12
	.cfi_def_cfa_offset 40
	.cfi_offset 12, -40
	pushq	%rbp
	.cfi_def_cfa_offset 48
	.cfi_offset 6, -48
	movl	%esi, %ebp
	pushq	%rbx
	.cfi_def_cfa_offset 56
	.cfi_offset 3, -56
	subq	$296, %rsp
	.cfi_def_cfa_offset 352
	.loc 4 51 6 view .LVU2530
	movq	%fs:40, %rax
	movq	%rax, 280(%rsp)
	xorl	%eax, %eax
.LVL867:
.LBB2959:
.LBI2959:
	.loc 5 242 10 is_stmt 1 view .LVU2531
.LBB2960:
	.loc 5 243 9 is_stmt 0 view .LVU2532
	cmpl	$7, %esi
	ja	.L402
	movl	%esi, %edi
.LVL868:
	.loc 5 244 13 view .LVU2533
	movl	$8, %edx
.LVL869:
	.loc 5 245 13 view .LVU2534
	xorl	%esi, %esi
.LVL870:
.LBB2961:
.LBB2962:
.LBB2963:
	.loc 5 34 9 view .LVU2535
	movl	$1, %r8d
	.loc 5 36 35 view .LVU2536
	xorl	%r9d, %r9d
.LBE2963:
.LBE2962:
.LBB2969:
.LBB2970:
.LBB2971:
.LBB2972:
	.loc 5 189 36 view .LVU2537
	movl	$7, %r10d
	jmp	.L397
.LVL871:
	.p2align 4,,10
	.p2align 3
.L399:
	.loc 5 189 36 view .LVU2538
.LBE2972:
.LBE2971:
.LBE2970:
	.loc 5 259 29 view .LVU2539
	movl	%eax, %edx
.LVL872:
	.loc 5 258 29 view .LVU2540
	leal	1(%rsi,%rsi), %esi
.LVL873:
	.loc 5 258 29 view .LVU2541
.LBE2969:
.LBE2961:
	.loc 5 261 28 is_stmt 1 view .LVU2542
	testl	%edx, %edx
	jle	.L404
.LVL874:
.L397:
.LBB2989:
.LBB2985:
.LBI2962:
	.loc 5 28 19 view .LVU2543
.LBB2968:
	.loc 5 29 5 view .LVU2544
.LBB2964:
.LBI2964:
	.loc 5 10 19 view .LVU2545
.LBB2965:
	.loc 5 11 5 view .LVU2546
	.loc 5 11 16 is_stmt 0 view .LVU2547
	movl	%edx, %eax
.LBE2965:
.LBE2964:
	.loc 5 34 9 view .LVU2548
	movl	%r8d, %ebx
.LBB2967:
.LBB2966:
	.loc 5 11 16 view .LVU2549
	sarl	%eax
	.loc 5 11 7 view .LVU2550
	orl	%edx, %eax
.LVL875:
	.loc 5 12 5 is_stmt 1 view .LVU2551
	.loc 5 12 16 is_stmt 0 view .LVU2552
	movl	%eax, %ecx
	sarl	$2, %ecx
	.loc 5 12 7 view .LVU2553
	orl	%ecx, %eax
.LVL876:
	.loc 5 13 5 is_stmt 1 view .LVU2554
	.loc 5 13 16 is_stmt 0 view .LVU2555
	movl	%eax, %ecx
	sarl	$4, %ecx
	.loc 5 13 7 view .LVU2556
	orl	%ecx, %eax
.LVL877:
	.loc 5 14 5 is_stmt 1 view .LVU2557
	.loc 5 14 16 is_stmt 0 view .LVU2558
	movl	%eax, %ecx
	sarl	$8, %ecx
	.loc 5 14 7 view .LVU2559
	orl	%ecx, %eax
.LVL878:
	.loc 5 15 5 is_stmt 1 view .LVU2560
	.loc 5 15 16 is_stmt 0 view .LVU2561
	movl	%eax, %ecx
	sarl	$16, %ecx
	.loc 5 15 7 view .LVU2562
	orl	%ecx, %eax
.LVL879:
	.loc 5 16 5 is_stmt 1 view .LVU2563
	.loc 5 16 19 is_stmt 0 view .LVU2564
	movl	%eax, %ecx
	sarl	%ecx
	.loc 5 16 23 view .LVU2565
	subl	%ecx, %eax
.LVL880:
	.loc 5 16 23 view .LVU2566
.LBE2966:
.LBE2967:
	.loc 5 30 5 is_stmt 1 view .LVU2567
	.loc 5 30 9 is_stmt 0 view .LVU2568
	movl	%eax, %r13d
	.loc 5 32 21 view .LVU2569
	movl	%eax, %ecx
	.loc 5 30 9 view .LVU2570
	sarl	%r13d
.LVL881:
	.loc 5 32 5 is_stmt 1 view .LVU2571
	.loc 5 32 21 is_stmt 0 view .LVU2572
	andl	$-2, %ecx
	addl	%r13d, %ecx
	.loc 5 32 37 view .LVU2573
	cmpl	%edx, %ecx
	.loc 5 32 9 view .LVU2574
	setg	%cl
	.loc 5 32 37 view .LVU2575
	setg	%r12b
.LVL882:
	.loc 5 33 5 is_stmt 1 view .LVU2576
	.loc 5 34 5 view .LVU2577
	.loc 5 36 5 view .LVU2578
	.loc 5 32 9 is_stmt 0 view .LVU2579
	movzbl	%cl, %ecx
.LVL883:
	.loc 5 34 34 view .LVU2580
	addl	%ecx, %ecx
.LVL884:
	.loc 5 34 9 view .LVU2581
	subl	%ecx, %ebx
	.loc 5 36 62 view .LVU2582
	leal	-1(%rax), %ecx
	.loc 5 36 54 view .LVU2583
	movl	%ebx, %eax
.LVL885:
	.loc 5 36 54 view .LVU2584
	imull	%ecx, %eax
	.loc 5 36 35 view .LVU2585
	testb	%r12b, %r12b
	.loc 5 36 30 view .LVU2586
	leal	-1(%rdx,%r13), %ecx
.LVL886:
	.loc 5 36 35 view .LVU2587
	cmove	%r9d, %ecx
	.loc 5 36 9 view .LVU2588
	addl	%ecx, %eax
.LVL887:
	.loc 5 37 5 is_stmt 1 view .LVU2589
	.loc 5 37 5 is_stmt 0 view .LVU2590
.LBE2968:
.LBE2985:
.LBB2986:
	.loc 5 248 13 view .LVU2591
	cmpl	%eax, %edi
	jle	.L399
.LVL888:
.LBB2984:
.LBB2983:
.LBI2971:
	.loc 5 186 14 is_stmt 1 view .LVU2592
.LBB2982:
.LBB2973:
.LBB2974:
.LBB2975:
	.loc 6 505 24 is_stmt 0 view .LVU2593
.LBE2975:
.LBE2974:
.LBE2973:
	.loc 5 188 17 view .LVU2594
	movl	%esi, %ecx
	sarl	$31, %ecx
	shrl	$29, %ecx
	leal	(%rsi,%rcx), %ebx
	andl	$7, %ebx
	subl	%ecx, %ebx
	.loc 5 189 36 view .LVU2595
	movl	%r10d, %ecx
	subl	%ebx, %ecx
	.loc 5 189 30 view .LVU2596
	movl	%r8d, %ebx
	sall	%cl, %ebx
.LVL889:
.LBB2980:
.LBI2973:
	.loc 6 364 7 is_stmt 1 view .LVU2597
.LBB2978:
.LBI2974:
	.loc 6 498 7 view .LVU2598
.LBB2976:
	.loc 6 502 2 discriminator 2 view .LVU2599
	.loc 6 503 2 discriminator 2 view .LVU2600
.LBE2976:
.LBE2978:
.LBE2980:
	.loc 5 187 17 is_stmt 0 view .LVU2601
	testl	%esi, %esi
	leal	7(%rsi), %ecx
	cmovns	%esi, %ecx
	sarl	$3, %ecx
.LBB2981:
.LBB2979:
.LBB2977:
	.loc 6 505 25 view .LVU2602
	movslq	%ecx, %rcx
	.loc 6 505 24 view .LVU2603
	movzbl	(%r11,%rcx), %ecx
.LVL890:
	.loc 6 505 24 view .LVU2604
.LBE2977:
.LBE2979:
.LBE2981:
.LBE2982:
.LBE2983:
	.loc 5 250 17 view .LVU2605
	notl	%ecx
.LVL891:
	.loc 5 250 17 view .LVU2606
	testb	%bl, %cl
	jne	.L404
	.loc 5 252 47 view .LVU2607
	subl	%eax, %edx
.LVL892:
	.loc 5 253 27 view .LVU2608
	subl	%eax, %edi
.LVL893:
	.loc 5 251 33 view .LVU2609
	leal	2(%rsi,%rsi), %esi
.LVL894:
	.loc 5 252 33 view .LVU2610
	subl	$1, %edx
.LVL895:
	.loc 5 253 23 view .LVU2611
	subl	$1, %edi
.LVL896:
	.loc 5 253 23 view .LVU2612
.LBE2984:
.LBE2986:
.LBE2989:
	.loc 5 261 28 is_stmt 1 view .LVU2613
	testl	%edx, %edx
	jg	.L397
.LVL897:
.L404:
	.loc 5 263 27 view .LVU2614
.LBB2990:
.LBB2991:
.LBB2992:
	.loc 5 198 43 is_stmt 0 view .LVU2615
	movl	$1, %edi
.LVL898:
	.loc 5 198 43 view .LVU2616
.LBE2992:
.LBE2991:
.LBE2990:
	.loc 5 263 27 view .LVU2617
	testl	%esi, %esi
	jg	.L401
	.loc 5 263 27 view .LVU2618
	jmp	.L402
.LVL899:
	.p2align 4,,10
	.p2align 3
.L405:
	.loc 5 263 27 is_stmt 1 view .LVU2619
	testl	%esi, %esi
	je	.L402
.LVL900:
.L401:
.LBB3000:
	.loc 5 264 39 is_stmt 0 view .LVU2620
	leal	-1(%rsi), %eax
	movl	%esi, %edx
	.loc 5 264 17 view .LVU2621
	movl	%eax, %esi
.LVL901:
	.loc 5 264 17 view .LVU2622
	sarl	%esi
.LVL902:
	.loc 5 265 13 view .LVU2623
	andl	$1, %edx
.LVL903:
	.loc 5 265 13 view .LVU2624
	je	.L405
.LVL904:
.LBB2999:
.LBI2991:
	.loc 5 195 14 is_stmt 1 view .LVU2625
.LBB2998:
.LBB2993:
.LBI2993:
	.loc 6 653 7 view .LVU2626
.LBE2993:
	.loc 5 198 43 is_stmt 0 view .LVU2627
	movl	%esi, %ecx
	movl	%edi, %edx
	.loc 5 196 17 view .LVU2628
	sarl	$4, %eax
.LVL905:
	.loc 5 198 43 view .LVU2629
	notl	%ecx
.LBB2996:
.LBB2994:
	.loc 6 655 35 view .LVU2630
	cltq
	.loc 6 655 35 view .LVU2631
.LBE2994:
.LBE2996:
	.loc 5 198 43 view .LVU2632
	andl	$7, %ecx
	sall	%cl, %edx
	.loc 5 198 21 view .LVU2633
	notl	%edx
.LBB2997:
.LBB2995:
	.loc 6 655 34 view .LVU2634
	lock andb	%dl, (%r11,%rax)
.LVL906:
	.loc 6 655 34 view .LVU2635
.LBE2995:
.LBE2997:
.LBE2998:
.LBE2999:
.LBE3000:
	.loc 5 263 27 is_stmt 1 view .LVU2636
	testl	%esi, %esi
	jne	.L401
.LVL907:
	.p2align 4,,10
	.p2align 3
.L402:
	.loc 5 263 27 is_stmt 0 view .LVU2637
	movl	%ebp, 12(%rsp)
.LBB3001:
.LBB2987:
	.loc 5 259 29 view .LVU2638
	xorl	%ebx, %ebx
	movl	$8, %edi
	xorl	%esi, %esi
.LBE2987:
.LBE3001:
.LBE2960:
.LBE2959:
.LBB3004:
.LBB3005:
.LBB3006:
.LBB3007:
.LBB3008:
	.loc 5 189 36 view .LVU2639
	movl	$7, %r14d
	.loc 5 189 30 view .LVU2640
	movl	$1, %r10d
.LBE3008:
.LBE3007:
.LBB3023:
.LBB3024:
	.loc 5 36 35 view .LVU2641
	xorl	%r13d, %r13d
.LVL908:
	.p2align 4,,10
	.p2align 3
.L398:
	.loc 5 36 35 view .LVU2642
.LBE3024:
.LBE3023:
.LBB3034:
.LBI3007:
	.loc 5 186 14 is_stmt 1 view .LVU2643
.LBB3021:
.LBB3009:
.LBB3010:
.LBB3011:
	.loc 6 505 24 is_stmt 0 view .LVU2644
.LBE3011:
.LBE3010:
.LBE3009:
	.loc 5 188 17 view .LVU2645
	movl	%esi, %edx
	.loc 5 189 36 view .LVU2646
	movl	%r14d, %ecx
	.loc 5 189 30 view .LVU2647
	movl	%r10d, %ebp
	.loc 5 188 17 view .LVU2648
	sarl	$31, %edx
	shrl	$29, %edx
	leal	(%rsi,%rdx), %eax
	andl	$7, %eax
	subl	%edx, %eax
	.loc 5 189 36 view .LVU2649
	subl	%eax, %ecx
	.loc 5 187 17 view .LVU2650
	leal	7(%rsi), %eax
	.loc 5 189 30 view .LVU2651
	sall	%cl, %ebp
.LVL909:
.LBB3018:
.LBI3009:
	.loc 6 364 7 is_stmt 1 view .LVU2652
.LBB3015:
.LBI3010:
	.loc 6 498 7 view .LVU2653
.LBB3012:
	.loc 6 502 2 discriminator 2 view .LVU2654
	.loc 6 503 2 discriminator 2 view .LVU2655
.LBE3012:
.LBE3015:
.LBE3018:
	.loc 5 187 17 is_stmt 0 view .LVU2656
	testl	%esi, %esi
	cmovns	%esi, %eax
	sarl	$3, %eax
.LBB3019:
.LBB3016:
.LBB3013:
	.loc 6 505 25 view .LVU2657
	cltq
	.loc 6 505 24 view .LVU2658
	movzbl	(%r11,%rax), %ecx
.LBE3013:
.LBE3016:
.LBE3019:
.LBE3021:
.LBE3034:
.LBB3035:
.LBB3031:
.LBB3025:
.LBB3026:
	.loc 5 11 16 view .LVU2659
	movl	%edi, %eax
.LBE3026:
.LBE3025:
.LBE3031:
.LBE3035:
.LBB3036:
.LBB3022:
.LBB3020:
.LBB3017:
.LBB3014:
	.loc 6 505 24 view .LVU2660
.LVL910:
	.loc 6 505 24 view .LVU2661
.LBE3014:
.LBE3017:
.LBE3020:
.LBE3022:
.LBE3036:
.LBB3037:
.LBI3023:
	.loc 5 28 19 is_stmt 1 view .LVU2662
.LBB3032:
	.loc 5 29 5 view .LVU2663
.LBB3029:
.LBI3025:
	.loc 5 10 19 view .LVU2664
.LBB3027:
	.loc 5 11 5 view .LVU2665
	.loc 5 11 16 is_stmt 0 view .LVU2666
	sarl	%eax
	.loc 5 11 7 view .LVU2667
	orl	%edi, %eax
.LVL911:
	.loc 5 12 5 is_stmt 1 view .LVU2668
.LBE3027:
.LBE3029:
.LBE3032:
.LBE3037:
	.loc 5 296 13 is_stmt 0 view .LVU2669
	notl	%ecx
.LVL912:
.LBB3038:
.LBB3033:
.LBB3030:
.LBB3028:
	.loc 5 12 16 view .LVU2670
	movl	%eax, %edx
	sarl	$2, %edx
	.loc 5 12 7 view .LVU2671
	orl	%edx, %eax
.LVL913:
	.loc 5 13 5 is_stmt 1 view .LVU2672
	.loc 5 13 16 is_stmt 0 view .LVU2673
	movl	%eax, %edx
	sarl	$4, %edx
	.loc 5 13 7 view .LVU2674
	orl	%edx, %eax
.LVL914:
	.loc 5 14 5 is_stmt 1 view .LVU2675
	.loc 5 14 16 is_stmt 0 view .LVU2676
	movl	%eax, %edx
	sarl	$8, %edx
	.loc 5 14 7 view .LVU2677
	orl	%edx, %eax
.LVL915:
	.loc 5 15 5 is_stmt 1 view .LVU2678
	.loc 5 15 16 is_stmt 0 view .LVU2679
	movl	%eax, %edx
	sarl	$16, %edx
	.loc 5 15 7 view .LVU2680
	orl	%edx, %eax
.LVL916:
	.loc 5 16 5 is_stmt 1 view .LVU2681
	.loc 5 16 19 is_stmt 0 view .LVU2682
	movl	%eax, %edx
	sarl	%edx
	.loc 5 16 23 view .LVU2683
	subl	%edx, %eax
.LVL917:
	.loc 5 16 23 view .LVU2684
.LBE3028:
.LBE3030:
	.loc 5 30 5 is_stmt 1 view .LVU2685
	.loc 5 30 9 is_stmt 0 view .LVU2686
	movl	%eax, %r9d
	.loc 5 32 21 view .LVU2687
	movl	%eax, %edx
	.loc 5 30 9 view .LVU2688
	sarl	%r9d
.LVL918:
	.loc 5 32 5 is_stmt 1 view .LVU2689
	.loc 5 32 21 is_stmt 0 view .LVU2690
	andl	$-2, %edx
	addl	%r9d, %edx
	.loc 5 32 37 view .LVU2691
	cmpl	%edi, %edx
	.loc 5 34 9 view .LVU2692
	movl	%r10d, %edx
	.loc 5 32 9 view .LVU2693
	setg	%r8b
	.loc 5 32 37 view .LVU2694
	setg	%r12b
.LVL919:
	.loc 5 33 5 is_stmt 1 view .LVU2695
	.loc 5 34 5 view .LVU2696
	.loc 5 36 5 view .LVU2697
	.loc 5 36 62 is_stmt 0 view .LVU2698
	subl	$1, %eax
.LVL920:
	.loc 5 32 9 view .LVU2699
	movzbl	%r8b, %r8d
.LVL921:
	.loc 5 34 34 view .LVU2700
	addl	%r8d, %r8d
.LVL922:
	.loc 5 34 9 view .LVU2701
	subl	%r8d, %edx
	.loc 5 36 54 view .LVU2702
	imull	%eax, %edx
	.loc 5 36 35 view .LVU2703
	testb	%r12b, %r12b
	.loc 5 36 30 view .LVU2704
	leal	-1(%rdi,%r9), %eax
.LVL923:
	.loc 5 36 35 view .LVU2705
	cmove	%r13d, %eax
	.loc 5 36 9 view .LVU2706
	addl	%eax, %edx
.LVL924:
	.loc 5 37 5 is_stmt 1 view .LVU2707
	.loc 5 37 5 is_stmt 0 view .LVU2708
.LBE3033:
.LBE3038:
	.loc 5 296 13 view .LVU2709
	testb	%bpl, %cl
	je	.L456
	.loc 5 305 29 view .LVU2710
	leal	1(%rsi,%rsi), %esi
.LVL925:
	.loc 5 305 29 view .LVU2711
.LBE3006:
	.loc 5 308 28 is_stmt 1 view .LVU2712
	testl	%edx, %edx
	jle	.L453
.LVL926:
.L407:
	.loc 5 308 28 is_stmt 0 view .LVU2713
.LBE3005:
.LBE3004:
.LBB3041:
.LBB3003:
.LBB3002:
.LBB2988:
	.loc 5 259 29 view .LVU2714
	movl	%edx, %edi
	jmp	.L398
.LVL927:
	.p2align 4,,10
	.p2align 3
.L456:
	.loc 5 259 29 view .LVU2715
.LBE2988:
.LBE3002:
.LBE3003:
.LBE3041:
.LBB3042:
.LBB3040:
.LBB3039:
	.loc 5 301 43 view .LVU2716
	subl	%edx, %edi
.LVL928:
	.loc 5 299 21 view .LVU2717
	leal	1(%rbx,%rdx), %ebx
.LVL929:
	.loc 5 300 29 view .LVU2718
	leal	2(%rsi,%rsi), %esi
.LVL930:
	.loc 5 301 29 view .LVU2719
	leal	-1(%rdi), %edx
.LVL931:
	.loc 5 301 29 view .LVU2720
.LBE3039:
	.loc 5 308 28 is_stmt 1 view .LVU2721
	testl	%edx, %edx
	jg	.L407
.L453:
	.loc 5 308 28 is_stmt 0 view .LVU2722
	movl	12(%rsp), %ebp
.LVL932:
	.loc 5 308 28 view .LVU2723
.LBE3040:
.LBE3042:
.LBB3043:
.LBI3043:
	.loc 11 662 5 is_stmt 1 view .LVU2724
.LBB3044:
	.loc 11 667 18 is_stmt 0 view .LVU2725
	leaq	_ZSt4cout(%rip), %r13
	movl	$28, %edx
	leaq	.LC7(%rip), %rsi
	movq	%r13, %rdi
.LEHB11:
	call	_ZSt16__ostream_insertIcSt11char_traitsIcEERSt13basic_ostreamIT_T0_ES6_PKS3_l@PLT
.LVL933:
.LEHE11:
	.loc 11 667 18 view .LVU2726
.LBE3044:
.LBE3043:
.LBB3045:
.LBI3045:
	.loc 13 4163 3 is_stmt 1 view .LVU2727
.LBB3046:
	.loc 13 4168 5 view .LVU2728
	.loc 13 4168 16 is_stmt 0 view .LVU2729
	movl	%ebp, %eax
	.loc 13 4169 35 discriminator 1 view .LVU2730
	movl	%ebp, %ecx
	.loc 13 4168 16 view .LVU2731
	shrl	$31, %eax
.LVL934:
	.loc 13 4169 5 is_stmt 1 view .LVU2732
	.loc 13 4169 35 is_stmt 0 discriminator 1 view .LVU2733
	negl	%ecx
	testl	%ebp, %ebp
	cmovns	%ebp, %ecx
.LVL935:
	.loc 13 4170 5 is_stmt 1 view .LVU2734
.LBB3047:
.LBI3047:
	.loc 14 55 5 view .LVU2735
	.loc 14 55 5 is_stmt 0 view .LVU2736
.LBE3047:
	.loc 13 4171 18 discriminator 1 view .LVU2737
	movl	%eax, %edx
	.loc 13 4172 46 view .LVU2738
	movzbl	%al, %ebp
.LVL936:
.LBB3052:
.LBB3048:
	.loc 14 67 4 view .LVU2739
	cmpl	$9, %ecx
	jbe	.L410
	.loc 14 68 4 view .LVU2740
	cmpl	$99, %ecx
	jbe	.L411
	.loc 14 69 4 view .LVU2741
	cmpl	$999, %ecx
	jbe	.L435
	.loc 14 70 4 view .LVU2742
	cmpl	$9999, %ecx
	jbe	.L457
	.loc 14 71 12 view .LVU2743
	movl	%ecx, %eax
.LVL937:
	.loc 14 65 7 is_stmt 1 view .LVU2744
	.loc 14 65 7 is_stmt 0 view .LVU2745
	movl	$5, %esi
	.loc 14 67 4 view .LVU2746
	cmpl	$99999, %ecx
	jbe	.L420
	.loc 14 68 4 view .LVU2747
	cmpl	$999999, %ecx
	jbe	.L458
	movl	$6, %r14d
	movl	$7, %esi
	.loc 14 69 4 view .LVU2748
	cmpl	$9999999, %ecx
	jbe	.L419
	.loc 14 70 4 view .LVU2749
	cmpl	$99999999, %ecx
	jbe	.L437
.LVL938:
	.loc 14 65 7 is_stmt 1 view .LVU2750
	.loc 14 67 4 is_stmt 0 view .LVU2751
	cmpq	$999999999, %rax
	jbe	.L438
	.loc 14 72 8 view .LVU2752
	movl	$9, %r14d
.LVL939:
.L421:
	.loc 14 72 8 view .LVU2753
.LBE3048:
.LBE3052:
.LBB3053:
.LBB3054:
.LBB3055:
.LBB3056:
	.loc 13 202 25 discriminator 1 view .LVU2754
	leaq	32(%rsp), %rdi
	leaq	48(%rsp), %r12
.LVL940:
	.loc 13 202 25 discriminator 1 view .LVU2755
	movq	%rax, 16(%rsp)
	movl	%ecx, 12(%rsp)
.LVL941:
	.loc 13 202 25 discriminator 1 view .LVU2756
.LBE3056:
.LBE3055:
.LBE3054:
.LBE3053:
	.loc 13 4171 5 is_stmt 1 view .LVU2757
.LBB3102:
.LBI3102:
	.loc 15 163 7 view .LVU2758
.LBB3103:
.LBI3103:
	.loc 16 88 7 view .LVU2759
	.loc 16 88 7 is_stmt 0 view .LVU2760
.LBE3103:
.LBE3102:
.LBB3107:
.LBI3053:
	.loc 13 667 7 is_stmt 1 view .LVU2761
.LBB3091:
.LBB3076:
.LBI3076:
	.loc 13 240 7 view .LVU2762
	.loc 13 240 7 is_stmt 0 view .LVU2763
.LBE3076:
.LBB3077:
.LBI3055:
	.loc 13 201 2 is_stmt 1 view .LVU2764
.LBB3065:
.LBB3057:
.LBI3057:
	.loc 15 167 7 view .LVU2765
.LBB3058:
.LBI3058:
	.loc 16 92 7 view .LVU2766
	.loc 16 92 7 is_stmt 0 view .LVU2767
.LBE3058:
.LBE3057:
.LBE3065:
.LBE3077:
.LBE3091:
.LBE3107:
	.loc 13 4171 36 discriminator 1 view .LVU2768
	leal	1(%r14,%rdx), %esi
.LVL942:
.LBB3108:
.LBB3092:
.LBB3078:
.LBB3066:
	.loc 13 202 25 discriminator 1 view .LVU2769
	movq	%rdi, 24(%rsp)
	movq	%r12, 32(%rsp)
.LVL943:
.L454:
	.loc 13 202 25 discriminator 1 view .LVU2770
.LBE3066:
.LBE3078:
	.loc 13 669 21 view .LVU2771
	movl	$45, %edx
	call	_ZNSt7__cxx1112basic_stringIcSt11char_traitsIcESaIcEE12_M_constructEmc@PLT
.LVL944:
	.loc 13 669 21 view .LVU2772
.LBE3092:
.LBE3108:
.LBB3109:
.LBI3109:
	.loc 15 184 7 is_stmt 1 view .LVU2773
.LBB3110:
.LBI3110:
	.loc 16 100 7 view .LVU2774
.LBE3110:
.LBE3109:
	.loc 13 4172 5 view .LVU2775
.LBB3113:
.LBI3113:
	.loc 13 1255 7 view .LVU2776
.LBB3114:
	.loc 13 1259 2 discriminator 2 view .LVU2777
.LBB3115:
.LBI3115:
	.loc 13 235 7 view .LVU2778
	.loc 13 235 7 is_stmt 0 view .LVU2779
	movq	16(%rsp), %rax
	movl	12(%rsp), %ecx
.LBE3115:
.LBE3114:
.LBE3113:
.LBB3121:
.LBB3122:
	.loc 14 87 22 view .LVU2780
	movdqa	.LC11(%rip), %xmm0
.LBE3122:
.LBE3121:
.LBB3132:
.LBB3118:
	.loc 13 1262 24 discriminator 1 view .LVU2781
	addq	32(%rsp), %rbp
.LVL945:
	.loc 13 1262 24 discriminator 1 view .LVU2782
.LBE3118:
.LBE3132:
.LBB3133:
.LBI3121:
	.loc 14 81 5 is_stmt 1 view .LVU2783
.LBB3128:
	.loc 14 94 20 view .LVU2784
	.loc 14 87 22 is_stmt 0 view .LVU2785
	movq	%rax, %rdx
	movaps	%xmm0, 64(%rsp)
	movdqa	.LC12(%rip), %xmm0
	movaps	%xmm0, 80(%rsp)
	movdqa	.LC13(%rip), %xmm0
	movaps	%xmm0, 96(%rsp)
	movdqa	.LC14(%rip), %xmm0
	movaps	%xmm0, 112(%rsp)
	movdqa	.LC15(%rip), %xmm0
	movaps	%xmm0, 128(%rsp)
	movdqa	.LC16(%rip), %xmm0
	movaps	%xmm0, 144(%rsp)
	movdqa	.LC17(%rip), %xmm0
	movaps	%xmm0, 160(%rsp)
	movdqa	.LC18(%rip), %xmm0
	movaps	%xmm0, 176(%rsp)
	movdqa	.LC19(%rip), %xmm0
	movaps	%xmm0, 192(%rsp)
	movdqa	.LC20(%rip), %xmm0
	movaps	%xmm0, 208(%rsp)
	movdqa	.LC21(%rip), %xmm0
	movaps	%xmm0, 224(%rsp)
	movdqa	.LC22(%rip), %xmm0
	movaps	%xmm0, 240(%rsp)
	movdqa	.LC23(%rip), %xmm0
	movups	%xmm0, 249(%rsp)
	jmp	.L423
.LVL946:
	.p2align 4,,10
	.p2align 3
.L459:
	.loc 14 87 22 view .LVU2786
	movl	%ecx, %edx
.LVL947:
.L423:
.LBB3123:
	.loc 14 96 30 view .LVU2787
	imulq	$1374389535, %rdx, %rdx
	movl	%ecx, %eax
	shrq	$37, %rdx
	imull	$100, %edx, %esi
	subl	%esi, %eax
	movl	%ecx, %esi
	.loc 14 97 10 view .LVU2788
	movl	%edx, %ecx
.LVL948:
	.loc 14 98 12 view .LVU2789
	movl	%r14d, %edx
	.loc 14 96 15 view .LVU2790
	addl	%eax, %eax
.LVL949:
	.loc 14 98 29 view .LVU2791
	leal	1(%rax), %edi
	.loc 14 99 23 view .LVU2792
	movzbl	64(%rsp,%rax), %eax
.LVL950:
	.loc 14 98 19 view .LVU2793
	movzbl	64(%rsp,%rdi), %edi
	movb	%dil, 0(%rbp,%rdx)
	.loc 14 99 18 view .LVU2794
	leal	-1(%r14), %edx
	.loc 14 100 10 view .LVU2795
	subl	$2, %r14d
.LVL951:
	.loc 14 100 10 view .LVU2796
.LBE3123:
	.loc 14 94 20 is_stmt 1 view .LVU2797
.LBB3124:
	.loc 14 99 23 is_stmt 0 view .LVU2798
	movb	%al, 0(%rbp,%rdx)
.LBE3124:
	.loc 14 94 20 view .LVU2799
	cmpl	$9999, %esi
	ja	.L459
.LBB3125:
	.loc 14 102 7 view .LVU2800
	cmpl	$999, %esi
	ja	.L417
.LVL952:
.L424:
	.loc 14 109 19 view .LVU2801
	addl	$48, %ecx
.L425:
	.loc 14 109 19 view .LVU2802
	movb	%cl, 0(%rbp)
.LVL953:
	.loc 14 109 19 view .LVU2803
.LBE3125:
.LBE3128:
.LBE3133:
	.loc 13 4173 5 is_stmt 1 view .LVU2804
	.loc 13 4173 5 is_stmt 0 view .LVU2805
.LBE3046:
.LBE3045:
.LBB3158:
.LBI3158:
	.loc 13 4033 5 is_stmt 1 view .LVU2806
.LBB3159:
.LBB3160:
.LBI3160:
	.loc 13 1072 7 view .LVU2807
	.loc 13 1072 7 is_stmt 0 view .LVU2808
.LBE3160:
.LBB3161:
.LBI3161:
	.loc 13 2609 7 is_stmt 1 view .LVU2809
.LBB3162:
.LBI3162:
	.loc 13 235 7 view .LVU2810
	.loc 13 235 7 is_stmt 0 view .LVU2811
.LBE3162:
.LBE3161:
	.loc 13 4038 30 discriminator 2 view .LVU2812
	movq	40(%rsp), %rdx
	movq	%r13, %rdi
	movq	32(%rsp), %rsi
.LEHB12:
	call	_ZSt16__ostream_insertIcSt11char_traitsIcEERSt13basic_ostreamIT_T0_ES6_PKS3_l@PLT
.LVL954:
.LBE3159:
.LBE3158:
.LBB3164:
.LBB3165:
	.loc 11 667 18 view .LVU2813
	movl	$2, %edx
	leaq	.LC8(%rip), %rsi
	movq	%rax, %rdi
.LBE3165:
.LBE3164:
.LBB3167:
.LBB3163:
	.loc 13 4038 30 discriminator 2 view .LVU2814
	movq	%rax, %rbp
.LVL955:
	.loc 13 4038 30 discriminator 2 view .LVU2815
.LBE3163:
.LBE3167:
.LBB3168:
.LBI3164:
	.loc 11 662 5 is_stmt 1 view .LVU2816
.LBB3166:
	.loc 11 667 18 is_stmt 0 view .LVU2817
	call	_ZSt16__ostream_insertIcSt11char_traitsIcEERSt13basic_ostreamIT_T0_ES6_PKS3_l@PLT
.LVL956:
	.loc 11 667 18 view .LVU2818
.LBE3166:
.LBE3168:
	.loc 4 54 87 discriminator 4 view .LVU2819
	movl	%ebx, %esi
	movq	%rbp, %rdi
	call	_ZNSolsEi@PLT
.LVL957:
.LBB3169:
.LBB3170:
	.loc 11 667 18 view .LVU2820
	movl	$11, %edx
	leaq	.LC9(%rip), %rsi
	movq	%rax, %rdi
.LBE3170:
.LBE3169:
	.loc 4 54 87 discriminator 4 view .LVU2821
	movq	%rax, %rbp
.LVL958:
.LBB3172:
.LBI3169:
	.loc 11 662 5 is_stmt 1 view .LVU2822
.LBB3171:
	.loc 11 667 18 is_stmt 0 view .LVU2823
	call	_ZSt16__ostream_insertIcSt11char_traitsIcEERSt13basic_ostreamIT_T0_ES6_PKS3_l@PLT
.LVL959:
	.loc 11 667 18 view .LVU2824
.LBE3171:
.LBE3172:
	.loc 4 55 44 view .LVU2825
	movl	%r15d, %esi
	movq	%rbp, %rdi
	call	_ZNSolsEi@PLT
.LVL960:
.LBB3173:
.LBB3174:
	.loc 11 667 18 view .LVU2826
	movl	$1, %edx
	leaq	.LC10(%rip), %rsi
	movq	%rax, %rdi
.LBE3174:
.LBE3173:
	.loc 4 55 44 view .LVU2827
	movq	%rax, %rbp
.LVL961:
.LBB3176:
.LBI3173:
	.loc 11 662 5 is_stmt 1 view .LVU2828
.LBB3175:
	.loc 11 667 18 is_stmt 0 view .LVU2829
	call	_ZSt16__ostream_insertIcSt11char_traitsIcEERSt13basic_ostreamIT_T0_ES6_PKS3_l@PLT
.LVL962:
	.loc 11 667 18 view .LVU2830
.LBE3175:
.LBE3176:
.LBB3177:
.LBI3177:
	.loc 11 110 7 is_stmt 1 view .LVU2831
.LBB3178:
.LBI3178:
	.loc 11 735 5 view .LVU2832
.LBB3179:
	.loc 11 736 39 is_stmt 0 view .LVU2833
	movq	0(%rbp), %rax
	movq	-24(%rax), %rax
	movq	240(%rbp,%rax), %r13
.LVL963:
.LBB3180:
.LBI3180:
	.loc 12 449 7 is_stmt 1 view .LVU2834
.LBB3181:
.LBI3181:
	.loc 12 47 5 view .LVU2835
.LBB3182:
	.loc 12 49 7 is_stmt 0 view .LVU2836
	testq	%r13, %r13
	je	.L460
.LVL964:
	.loc 12 49 7 view .LVU2837
.LBE3182:
.LBE3181:
.LBB3184:
.LBI3184:
	.loc 1 880 7 is_stmt 1 view .LVU2838
.LBB3185:
	.loc 1 882 2 view .LVU2839
	cmpb	$0, 56(%r13)
	je	.L428
	.loc 1 883 4 view .LVU2840
.LBE3185:
.LBE3184:
.LBE3180:
	.loc 11 736 19 is_stmt 0 discriminator 1 view .LVU2841
	movsbl	67(%r13), %esi
.LVL965:
.L429:
	.loc 11 736 19 discriminator 1 view .LVU2842
	movq	%rbp, %rdi
	call	_ZNSo3putEc@PLT
.LVL966:
	movq	%rax, %rdi
.LVL967:
.LBB3191:
.LBI3191:
	.loc 11 757 5 is_stmt 1 view .LVU2843
.LBB3192:
	.loc 11 758 24 is_stmt 0 view .LVU2844
	call	_ZNSo5flushEv@PLT
.LVL968:
.LEHE12:
	.loc 11 758 24 view .LVU2845
.LBE3192:
.LBE3191:
.LBE3179:
.LBE3178:
.LBE3177:
.LBB3199:
.LBI3199:
	.loc 13 804 7 is_stmt 1 view .LVU2846
.LBB3200:
.LBB3201:
.LBI3201:
	.loc 13 293 7 view .LVU2847
.LBB3202:
.LBB3203:
.LBI3203:
	.loc 13 275 7 view .LVU2848
.LBB3204:
.LBB3205:
.LBI3205:
	.loc 13 235 7 view .LVU2849
.LBB3206:
	.loc 13 236 28 is_stmt 0 view .LVU2850
	movq	32(%rsp), %rdi
.LVL969:
	.loc 13 236 28 view .LVU2851
.LBE3206:
.LBE3205:
.LBB3207:
.LBI3207:
	.loc 13 251 7 is_stmt 1 view .LVU2852
	.loc 13 251 7 is_stmt 0 view .LVU2853
.LBE3207:
	.loc 13 277 2 discriminator 2 view .LVU2854
	cmpq	%r12, %rdi
	je	.L430
.LVL970:
	.loc 13 277 2 discriminator 2 view .LVU2855
.LBE3204:
.LBE3203:
.LBB3208:
.LBI3208:
	.loc 13 301 7 is_stmt 1 view .LVU2856
.LBB3209:
.LBB3210:
.LBI3210:
	.loc 17 515 7 view .LVU2857
.LBB3211:
.LBI3211:
	.loc 16 152 7 view .LVU2858
	.loc 16 152 7 is_stmt 0 view .LVU2859
.LBE3211:
.LBE3210:
	.loc 13 302 34 view .LVU2860
	movq	48(%rsp), %rax
	leaq	1(%rax), %rsi
.LVL971:
.LBB3214:
.LBB3213:
.LBB3212:
	.loc 16 168 26 view .LVU2861
	call	_ZdlPvm@PLT
.LVL972:
.L430:
	.loc 16 168 26 view .LVU2862
.LBE3212:
.LBE3213:
.LBE3214:
.LBE3209:
.LBE3208:
.LBE3202:
.LBE3201:
.LBB3215:
.LBI3215:
	.loc 13 194 14 is_stmt 1 view .LVU2863
.LBB3216:
.LBI3216:
	.loc 15 184 7 view .LVU2864
	.loc 15 184 7 is_stmt 0 view .LVU2865
.LBE3216:
.LBE3215:
.LBE3200:
.LBE3199:
	.loc 4 56 20 view .LVU2866
	cmpl	%ebx, %r15d
	sete	%al
	.loc 4 57 1 view .LVU2867
	movq	280(%rsp), %rdx
	subq	%fs:40, %rdx
	jne	.L450
	addq	$296, %rsp
	.cfi_remember_state
	.cfi_def_cfa_offset 56
	popq	%rbx
	.cfi_def_cfa_offset 48
.LVL973:
	.loc 4 57 1 view .LVU2868
	popq	%rbp
	.cfi_def_cfa_offset 40
	popq	%r12
	.cfi_def_cfa_offset 32
	popq	%r13
	.cfi_def_cfa_offset 24
	popq	%r14
	.cfi_def_cfa_offset 16
	popq	%r15
	.cfi_def_cfa_offset 8
.LVL974:
	.loc 4 57 1 view .LVU2869
	ret
.LVL975:
.L411:
	.cfi_restore_state
.LBB3217:
.LBB3156:
.LBB3134:
.LBB3093:
.LBB3079:
.LBB3067:
	.loc 13 202 25 discriminator 1 view .LVU2870
	leaq	32(%rsp), %rdi
	leaq	48(%rsp), %r12
.LVL976:
	.loc 13 202 25 discriminator 1 view .LVU2871
.LBE3067:
.LBE3079:
	.loc 13 669 21 view .LVU2872
	movl	$45, %edx
	movl	%ecx, 12(%rsp)
.LVL977:
	.loc 13 669 21 view .LVU2873
.LBE3093:
.LBE3134:
	.loc 13 4171 5 is_stmt 1 view .LVU2874
.LBB3135:
	.loc 15 163 7 view .LVU2875
.LBB3104:
	.loc 16 88 7 view .LVU2876
	.loc 16 88 7 is_stmt 0 view .LVU2877
.LBE3104:
.LBE3135:
.LBB3136:
	.loc 13 667 7 is_stmt 1 view .LVU2878
.LBB3094:
.LBB3080:
	.loc 13 240 7 view .LVU2879
	.loc 13 240 7 is_stmt 0 view .LVU2880
.LBE3080:
.LBB3081:
	.loc 13 201 2 is_stmt 1 view .LVU2881
.LBB3068:
.LBB3062:
	.loc 15 167 7 view .LVU2882
.LBB3059:
	.loc 16 92 7 view .LVU2883
	.loc 16 92 7 is_stmt 0 view .LVU2884
.LBE3059:
.LBE3062:
.LBE3068:
.LBE3081:
.LBE3094:
.LBE3136:
	.loc 13 4171 24 discriminator 1 view .LVU2885
	leal	2(%rax), %esi
.LVL978:
.LBB3137:
.LBB3095:
.LBB3082:
.LBB3069:
	.loc 13 202 25 discriminator 1 view .LVU2886
	movq	%rdi, 24(%rsp)
	movq	%r12, 32(%rsp)
.LVL979:
	.loc 13 202 25 discriminator 1 view .LVU2887
.LBE3069:
.LBE3082:
	.loc 13 669 21 view .LVU2888
	call	_ZNSt7__cxx1112basic_stringIcSt11char_traitsIcESaIcEE12_M_constructEmc@PLT
.LVL980:
	.loc 13 669 21 view .LVU2889
.LBE3095:
.LBE3137:
.LBB3138:
	.loc 15 184 7 is_stmt 1 view .LVU2890
.LBB3111:
	.loc 16 100 7 view .LVU2891
.LBE3111:
.LBE3138:
	.loc 13 4172 5 view .LVU2892
.LBB3139:
	.loc 13 1255 7 view .LVU2893
.LBB3119:
	.loc 13 1259 2 discriminator 2 view .LVU2894
.LBB3116:
	.loc 13 235 7 view .LVU2895
	.loc 13 235 7 is_stmt 0 view .LVU2896
	movl	12(%rsp), %ecx
.LBE3116:
	.loc 13 1262 24 discriminator 1 view .LVU2897
	addq	32(%rsp), %rbp
.LVL981:
	.loc 13 1262 24 discriminator 1 view .LVU2898
.LBE3119:
.LBE3139:
.LBB3140:
	.loc 14 81 5 is_stmt 1 view .LVU2899
.LBB3129:
	.loc 14 87 22 is_stmt 0 view .LVU2900
	movdqa	.LC11(%rip), %xmm0
	movaps	%xmm0, 64(%rsp)
	movdqa	.LC12(%rip), %xmm0
	movaps	%xmm0, 80(%rsp)
	movdqa	.LC13(%rip), %xmm0
	movaps	%xmm0, 96(%rsp)
	movdqa	.LC14(%rip), %xmm0
	movaps	%xmm0, 112(%rsp)
	movdqa	.LC15(%rip), %xmm0
	movaps	%xmm0, 128(%rsp)
	movdqa	.LC16(%rip), %xmm0
	movaps	%xmm0, 144(%rsp)
	movdqa	.LC17(%rip), %xmm0
	movaps	%xmm0, 160(%rsp)
	movdqa	.LC18(%rip), %xmm0
	movaps	%xmm0, 176(%rsp)
	movdqa	.LC19(%rip), %xmm0
	movaps	%xmm0, 192(%rsp)
	movdqa	.LC20(%rip), %xmm0
	movaps	%xmm0, 208(%rsp)
	movdqa	.LC21(%rip), %xmm0
	movaps	%xmm0, 224(%rsp)
	movdqa	.LC22(%rip), %xmm0
	movaps	%xmm0, 240(%rsp)
	movdqa	.LC23(%rip), %xmm0
	movups	%xmm0, 249(%rsp)
.LVL982:
	.loc 14 94 20 is_stmt 1 view .LVU2901
	.p2align 4,,10
	.p2align 3
.L417:
.LBB3127:
.LBB3126:
	.loc 14 104 15 is_stmt 0 view .LVU2902
	addl	%ecx, %ecx
.LVL983:
	.loc 14 105 25 view .LVU2903
	leal	1(%rcx), %eax
	.loc 14 106 25 view .LVU2904
	movzbl	64(%rsp,%rcx), %ecx
.LVL984:
	.loc 14 105 15 view .LVU2905
	movzbl	64(%rsp,%rax), %eax
	movb	%al, 1(%rbp)
.LBE3126:
	jmp	.L425
.LVL985:
	.p2align 4,,10
	.p2align 3
.L438:
	.loc 14 105 15 view .LVU2906
.LBE3127:
.LBE3129:
.LBE3140:
.LBB3141:
.LBB3049:
	.loc 14 72 8 view .LVU2907
	movl	$9, %esi
.LVL986:
.L420:
	.loc 14 72 8 view .LVU2908
.LBE3049:
.LBE3141:
.LBB3142:
.LBB3130:
	.loc 14 93 16 view .LVU2909
	leal	-1(%rsi), %r14d
.L419:
.LBE3130:
.LBE3142:
.LBB3143:
.LBB3096:
.LBB3083:
.LBB3070:
	.loc 13 202 25 discriminator 1 view .LVU2910
	leaq	32(%rsp), %rdi
	leaq	48(%rsp), %r12
.LVL987:
	.loc 13 202 25 discriminator 1 view .LVU2911
	movl	%ecx, 12(%rsp)
.LVL988:
	.loc 13 202 25 discriminator 1 view .LVU2912
.LBE3070:
.LBE3083:
.LBE3096:
.LBE3143:
	.loc 13 4171 5 is_stmt 1 view .LVU2913
.LBB3144:
	.loc 15 163 7 view .LVU2914
.LBB3105:
	.loc 16 88 7 view .LVU2915
	.loc 16 88 7 is_stmt 0 view .LVU2916
.LBE3105:
.LBE3144:
.LBB3145:
	.loc 13 667 7 is_stmt 1 view .LVU2917
.LBB3097:
.LBB3084:
	.loc 13 240 7 view .LVU2918
	.loc 13 240 7 is_stmt 0 view .LVU2919
.LBE3084:
.LBB3085:
	.loc 13 201 2 is_stmt 1 view .LVU2920
.LBB3071:
.LBB3063:
	.loc 15 167 7 view .LVU2921
.LBB3060:
	.loc 16 92 7 view .LVU2922
	.loc 16 92 7 is_stmt 0 view .LVU2923
.LBE3060:
.LBE3063:
.LBE3071:
.LBE3085:
.LBE3097:
.LBE3145:
	.loc 13 4171 24 discriminator 1 view .LVU2924
	addl	%edx, %esi
	movq	%rax, 16(%rsp)
.LBB3146:
.LBB3098:
.LBB3086:
.LBB3072:
	.loc 13 202 25 discriminator 1 view .LVU2925
	movq	%rdi, 24(%rsp)
	movq	%r12, 32(%rsp)
.LVL989:
	.loc 13 202 25 discriminator 1 view .LVU2926
	jmp	.L454
.LVL990:
	.p2align 4,,10
	.p2align 3
.L428:
	.loc 13 202 25 discriminator 1 view .LVU2927
.LBE3072:
.LBE3086:
.LBE3098:
.LBE3146:
.LBE3156:
.LBE3217:
.LBB3218:
.LBB3197:
.LBB3195:
.LBB3193:
.LBB3189:
.LBB3188:
.LBB3186:
.LBI3186:
	.loc 1 880 7 is_stmt 1 view .LVU2928
.LBB3187:
	.loc 1 884 2 view .LVU2929
	.loc 1 884 21 is_stmt 0 view .LVU2930
	movq	%r13, %rdi
.LEHB13:
	call	_ZNKSt5ctypeIcE13_M_widen_initEv@PLT
.LVL991:
	.loc 1 885 2 is_stmt 1 view .LVU2931
	.loc 1 885 23 is_stmt 0 view .LVU2932
	movq	0(%r13), %rax
	leaq	_ZNKSt5ctypeIcE8do_widenEc(%rip), %rdx
	movl	$10, %esi
	movq	48(%rax), %rax
	cmpq	%rdx, %rax
	je	.L429
	movq	%r13, %rdi
	call	*%rax
.LVL992:
.LEHE13:
.LBE3187:
.LBE3186:
.LBE3188:
.LBE3189:
.LBE3193:
	.loc 11 736 19 discriminator 1 view .LVU2933
	movsbl	%al, %esi
	jmp	.L429
.LVL993:
	.p2align 4,,10
	.p2align 3
.L437:
	.loc 11 736 19 discriminator 1 view .LVU2934
.LBE3195:
.LBE3197:
.LBE3218:
.LBB3219:
.LBB3157:
.LBB3147:
.LBB3050:
	movl	$7, %r14d
	movl	$8, %esi
	.loc 14 70 37 view .LVU2935
	jmp	.L419
.LVL994:
.L410:
	.loc 14 70 37 view .LVU2936
.LBE3050:
.LBE3147:
.LBB3148:
.LBB3099:
.LBB3087:
.LBB3073:
	.loc 13 202 25 discriminator 1 view .LVU2937
	leaq	32(%rsp), %rdi
	leaq	48(%rsp), %r12
.LVL995:
	.loc 13 202 25 discriminator 1 view .LVU2938
.LBE3073:
.LBE3087:
	.loc 13 669 21 view .LVU2939
	movl	$45, %edx
	movl	%ecx, 12(%rsp)
.LVL996:
	.loc 13 669 21 view .LVU2940
.LBE3099:
.LBE3148:
	.loc 13 4171 5 is_stmt 1 view .LVU2941
.LBB3149:
	.loc 15 163 7 view .LVU2942
.LBB3106:
	.loc 16 88 7 view .LVU2943
	.loc 16 88 7 is_stmt 0 view .LVU2944
.LBE3106:
.LBE3149:
.LBB3150:
	.loc 13 667 7 is_stmt 1 view .LVU2945
.LBB3100:
.LBB3088:
	.loc 13 240 7 view .LVU2946
	.loc 13 240 7 is_stmt 0 view .LVU2947
.LBE3088:
.LBB3089:
	.loc 13 201 2 is_stmt 1 view .LVU2948
.LBB3074:
.LBB3064:
	.loc 15 167 7 view .LVU2949
.LBB3061:
	.loc 16 92 7 view .LVU2950
	.loc 16 92 7 is_stmt 0 view .LVU2951
.LBE3061:
.LBE3064:
.LBE3074:
.LBE3089:
.LBE3100:
.LBE3150:
	.loc 13 4171 24 discriminator 1 view .LVU2952
	leal	1(%rax), %esi
.LVL997:
.LBB3151:
.LBB3101:
.LBB3090:
.LBB3075:
	.loc 13 202 25 discriminator 1 view .LVU2953
	movq	%rdi, 24(%rsp)
	movq	%r12, 32(%rsp)
.LVL998:
	.loc 13 202 25 discriminator 1 view .LVU2954
.LBE3075:
.LBE3090:
	.loc 13 669 21 view .LVU2955
	call	_ZNSt7__cxx1112basic_stringIcSt11char_traitsIcESaIcEE12_M_constructEmc@PLT
.LVL999:
	.loc 13 669 21 view .LVU2956
.LBE3101:
.LBE3151:
.LBB3152:
	.loc 15 184 7 is_stmt 1 view .LVU2957
.LBB3112:
	.loc 16 100 7 view .LVU2958
.LBE3112:
.LBE3152:
	.loc 13 4172 5 view .LVU2959
.LBB3153:
	.loc 13 1255 7 view .LVU2960
.LBB3120:
	.loc 13 1259 2 discriminator 2 view .LVU2961
.LBB3117:
	.loc 13 235 7 view .LVU2962
	.loc 13 235 7 is_stmt 0 view .LVU2963
	movl	12(%rsp), %ecx
.LBE3117:
	.loc 13 1262 24 discriminator 1 view .LVU2964
	addq	32(%rsp), %rbp
.LVL1000:
	.loc 13 1262 24 discriminator 1 view .LVU2965
.LBE3120:
.LBE3153:
.LBB3154:
	.loc 14 81 5 is_stmt 1 view .LVU2966
.LBB3131:
	.loc 14 94 20 view .LVU2967
	jmp	.L424
.LVL1001:
.L435:
	.loc 14 94 20 is_stmt 0 view .LVU2968
.LBE3131:
.LBE3154:
.LBB3155:
.LBB3051:
	.loc 14 69 4 view .LVU2969
	movl	$2, %r14d
	movl	$3, %esi
	movl	%ecx, %eax
.LVL1002:
	.loc 14 69 37 view .LVU2970
	jmp	.L419
.LVL1003:
.L457:
	.loc 14 70 4 view .LVU2971
	movl	$3, %r14d
	movl	$4, %esi
	movl	%ecx, %eax
.LVL1004:
	.loc 14 70 4 view .LVU2972
	jmp	.L419
.LVL1005:
.L458:
	.loc 14 70 4 view .LVU2973
	movl	$5, %r14d
	jmp	.L421
.LVL1006:
.L431:
	.loc 14 70 4 view .LVU2974
.LBE3051:
.LBE3155:
.LBE3157:
.LBE3219:
.LBB3220:
.LBI3220:
	.loc 13 804 7 is_stmt 1 view .LVU2975
.LBB3221:
	.loc 13 805 19 is_stmt 0 view .LVU2976
	movq	24(%rsp), %rdi
	call	_ZNSt7__cxx1112basic_stringIcSt11char_traitsIcESaIcEE10_M_disposeEv@PLT
.LVL1007:
.LBB3222:
.LBI3222:
	.loc 13 194 14 is_stmt 1 view .LVU2977
.LBB3223:
.LBI3223:
	.loc 15 184 7 view .LVU2978
	.loc 15 184 7 is_stmt 0 view .LVU2979
	movq	280(%rsp), %rax
	subq	%fs:40, %rax
	je	.L432
.L450:
.LBE3223:
.LBE3222:
.LBE3221:
.LBE3220:
	.loc 4 57 1 view .LVU2980
	call	__stack_chk_fail@PLT
.LVL1008:
.L460:
.LBB3225:
.LBB3198:
.LBB3196:
.LBB3194:
.LBB3190:
.LBB3183:
	.loc 12 50 18 view .LVU2981
	movq	280(%rsp), %rax
	subq	%fs:40, %rax
.LVL1009:
	.loc 12 50 18 view .LVU2982
	jne	.L450
.LEHB14:
	call	_ZSt16__throw_bad_castv@PLT
.LVL1010:
.LEHE14:
.L440:
	.loc 12 50 18 view .LVU2983
.LBE3183:
.LBE3190:
.LBE3194:
.LBE3196:
.LBE3198:
.LBE3225:
.LBB3226:
.LBB3224:
	.loc 13 805 19 view .LVU2984
	movq	%rax, %rbx
.LVL1011:
	.loc 13 805 19 view .LVU2985
	jmp	.L431
.L432:
	movq	%rbx, %rdi
.LEHB15:
	call	_Unwind_Resume@PLT
.LVL1012:
.LEHE15:
.LBE3224:
.LBE3226:
	.cfi_endproc
.LFE3085:
	.section	.gcc_except_table
.LLSDA3085:
	.byte	0xff
	.byte	0xff
	.byte	0x1
	.uleb128 .LLSDACSE3085-.LLSDACSB3085
.LLSDACSB3085:
	.uleb128 .LEHB11-.LFB3085
	.uleb128 .LEHE11-.LEHB11
	.uleb128 0
	.uleb128 0
	.uleb128 .LEHB12-.LFB3085
	.uleb128 .LEHE12-.LEHB12
	.uleb128 .L440-.LFB3085
	.uleb128 0
	.uleb128 .LEHB13-.LFB3085
	.uleb128 .LEHE13-.LEHB13
	.uleb128 .L440-.LFB3085
	.uleb128 0
	.uleb128 .LEHB14-.LFB3085
	.uleb128 .LEHE14-.LEHB14
	.uleb128 .L440-.LFB3085
	.uleb128 0
	.uleb128 .LEHB15-.LFB3085
	.uleb128 .LEHE15-.LEHB15
	.uleb128 0
	.uleb128 0
.LLSDACSE3085:
	.section	.text._Z12writeAndReadILi1EEbR14BoundedMinReg2IXT_EEii,"axG",@progbits,_Z12writeAndReadILi1EEbR14BoundedMinReg2IXT_EEii,comdat
	.size	_Z12writeAndReadILi1EEbR14BoundedMinReg2IXT_EEii, .-_Z12writeAndReadILi1EEbR14BoundedMinReg2IXT_EEii
	.section	.rodata.str1.1
.LC42:
	.string	"void easyTest()"
.LC43:
	.string	"writeAndRead(r,7,7)"
	.text
	.p2align 4
	.globl	_Z8easyTestv
	.type	_Z8easyTestv, @function
_Z8easyTestv:
.LFB2699:
	.loc 4 98 16 is_stmt 1 view -0
	.cfi_startproc
	pushq	%r14
	.cfi_def_cfa_offset 16
	.cfi_offset 14, -16
	pushq	%r13
	.cfi_def_cfa_offset 24
	.cfi_offset 13, -24
	pushq	%r12
	.cfi_def_cfa_offset 32
	.cfi_offset 12, -32
	pushq	%rbp
	.cfi_def_cfa_offset 40
	.cfi_offset 6, -40
	pushq	%rbx
	.cfi_def_cfa_offset 48
	.cfi_offset 3, -48
	subq	$16, %rsp
	.cfi_def_cfa_offset 64
	.loc 4 98 16 is_stmt 0 view .LVU2987
	movq	%fs:40, %rax
	movq	%rax, 8(%rsp)
	xorl	%eax, %eax
	.loc 4 99 5 is_stmt 1 view .LVU2988
.LVL1013:
.LBB3268:
.LBI3268:
	.loc 5 214 5 view .LVU2989
	.loc 5 214 46 discriminator 1 view .LVU2990
.LBB3269:
.LBB3270:
.LBI3270:
	.loc 7 1152 5 view .LVU2991
.LBB3271:
.LBI3271:
	.loc 7 1117 5 view .LVU2992
.LBB3272:
.LBI3272:
	.loc 7 976 5 view .LVU2993
.LBB3273:
.LBI3273:
	.loc 7 926 5 view .LVU2994
.LBB3274:
	.loc 7 930 22 discriminator 1 view .LVU2995
.LBB3275:
.LBI3275:
	.loc 6 371 7 view .LVU2996
.LBB3276:
.LBI3276:
	.loc 6 473 7 view .LVU2997
.LBB3277:
	.loc 6 477 2 discriminator 2 view .LVU2998
	.loc 6 478 2 discriminator 2 view .LVU2999
	.loc 6 479 2 discriminator 2 view .LVU3000
	.loc 6 481 18 is_stmt 0 view .LVU3001
	movl	$-1, %eax
	xchgb	7(%rsp), %al
.LBE3277:
.LBE3276:
.LBE3275:
.LBE3274:
.LBE3273:
.LBE3272:
.LBE3271:
.LBE3270:
.LBE3269:
.LBE3268:
.LBB3287:
.LBB3288:
	.loc 11 667 18 view .LVU3002
	leaq	_ZSt4cout(%rip), %rbx
	movl	$23, %edx
	leaq	.LC5(%rip), %rsi
.LBE3288:
.LBE3287:
.LBB3290:
.LBB3286:
.LBB3285:
.LBB3284:
.LBB3283:
.LBB3282:
.LBB3281:
.LBB3280:
.LBB3279:
.LBB3278:
	.loc 6 481 18 view .LVU3003
.LVL1014:
	.loc 6 481 18 view .LVU3004
.LBE3278:
.LBE3279:
.LBE3280:
	.loc 7 930 7 is_stmt 1 discriminator 2 view .LVU3005
	.loc 7 930 22 discriminator 1 view .LVU3006
	.loc 7 930 22 is_stmt 0 discriminator 1 view .LVU3007
.LBE3281:
.LBE3282:
.LBE3283:
.LBE3284:
.LBE3285:
.LBE3286:
.LBE3290:
	.loc 4 100 5 is_stmt 1 view .LVU3008
.LBB3291:
.LBI3287:
	.loc 11 662 5 view .LVU3009
.LBB3289:
	.loc 11 667 18 is_stmt 0 view .LVU3010
	movq	%rbx, %rdi
	call	_ZSt16__ostream_insertIcSt11char_traitsIcEERSt13basic_ostreamIT_T0_ES6_PKS3_l@PLT
.LVL1015:
	.loc 11 667 18 view .LVU3011
.LBE3289:
.LBE3291:
.LBB3292:
.LBI3292:
	.loc 5 289 9 is_stmt 1 view .LVU3012
.LBB3293:
	.loc 5 291 13 is_stmt 0 view .LVU3013
	xorl	%r10d, %r10d
	.loc 5 290 28 view .LVU3014
	movl	$8, %esi
	.loc 5 290 13 view .LVU3015
	xorl	%edx, %edx
.LBB3294:
.LBB3295:
.LBB3296:
	.loc 5 189 36 view .LVU3016
	movl	$7, %r9d
	.loc 5 189 30 view .LVU3017
	movl	$1, %edi
.LBE3296:
.LBE3295:
.LBB3311:
.LBB3312:
	.loc 5 36 35 view .LVU3018
	xorl	%r8d, %r8d
.LVL1016:
	.p2align 4,,10
	.p2align 3
.L465:
	.loc 5 36 35 view .LVU3019
.LBE3312:
.LBE3311:
.LBB3322:
.LBI3295:
	.loc 5 186 14 is_stmt 1 view .LVU3020
.LBB3309:
.LBB3297:
.LBB3298:
.LBB3299:
	.loc 6 505 24 is_stmt 0 view .LVU3021
.LBE3299:
.LBE3298:
.LBE3297:
	.loc 5 188 17 view .LVU3022
	movl	%edx, %ecx
	.loc 5 189 30 view .LVU3023
	movl	%edi, %r11d
	.loc 5 188 17 view .LVU3024
	sarl	$31, %ecx
	shrl	$29, %ecx
	leal	(%rdx,%rcx), %eax
	andl	$7, %eax
	subl	%ecx, %eax
	.loc 5 189 36 view .LVU3025
	movl	%r9d, %ecx
	subl	%eax, %ecx
	.loc 5 187 17 view .LVU3026
	leal	7(%rdx), %eax
	.loc 5 189 30 view .LVU3027
	sall	%cl, %r11d
.LVL1017:
.LBB3306:
.LBI3297:
	.loc 6 364 7 is_stmt 1 view .LVU3028
.LBB3303:
.LBI3298:
	.loc 6 498 7 view .LVU3029
.LBB3300:
	.loc 6 502 2 discriminator 2 view .LVU3030
	.loc 6 503 2 discriminator 2 view .LVU3031
.LBE3300:
.LBE3303:
.LBE3306:
	.loc 5 187 17 is_stmt 0 view .LVU3032
	testl	%edx, %edx
	cmovns	%edx, %eax
	sarl	$3, %eax
.LBB3307:
.LBB3304:
.LBB3301:
	.loc 6 505 25 view .LVU3033
	cltq
	.loc 6 505 24 view .LVU3034
	movzbl	7(%rsp,%rax), %ecx
.LBE3301:
.LBE3304:
.LBE3307:
.LBE3309:
.LBE3322:
.LBB3323:
.LBB3319:
.LBB3313:
.LBB3314:
	.loc 5 11 16 view .LVU3035
	movl	%esi, %eax
.LBE3314:
.LBE3313:
.LBE3319:
.LBE3323:
.LBB3324:
.LBB3310:
.LBB3308:
.LBB3305:
.LBB3302:
	.loc 6 505 24 view .LVU3036
.LVL1018:
	.loc 6 505 24 view .LVU3037
.LBE3302:
.LBE3305:
.LBE3308:
.LBE3310:
.LBE3324:
.LBB3325:
.LBI3311:
	.loc 5 28 19 is_stmt 1 view .LVU3038
.LBB3320:
	.loc 5 29 5 view .LVU3039
.LBB3317:
.LBI3313:
	.loc 5 10 19 view .LVU3040
.LBB3315:
	.loc 5 11 5 view .LVU3041
	.loc 5 11 16 is_stmt 0 view .LVU3042
	sarl	%eax
	.loc 5 11 7 view .LVU3043
	orl	%esi, %eax
.LVL1019:
	.loc 5 12 5 is_stmt 1 view .LVU3044
.LBE3315:
.LBE3317:
.LBE3320:
.LBE3325:
	.loc 5 296 13 is_stmt 0 view .LVU3045
	notl	%ecx
.LVL1020:
.LBB3326:
.LBB3321:
.LBB3318:
.LBB3316:
	.loc 5 12 16 view .LVU3046
	movl	%eax, %ebp
	sarl	$2, %ebp
	.loc 5 12 7 view .LVU3047
	orl	%ebp, %eax
.LVL1021:
	.loc 5 13 5 is_stmt 1 view .LVU3048
	.loc 5 13 16 is_stmt 0 view .LVU3049
	movl	%eax, %ebp
	sarl	$4, %ebp
	.loc 5 13 7 view .LVU3050
	orl	%ebp, %eax
.LVL1022:
	.loc 5 14 5 is_stmt 1 view .LVU3051
	.loc 5 14 16 is_stmt 0 view .LVU3052
	movl	%eax, %ebp
	sarl	$8, %ebp
	.loc 5 14 7 view .LVU3053
	orl	%ebp, %eax
.LVL1023:
	.loc 5 15 5 is_stmt 1 view .LVU3054
	.loc 5 15 16 is_stmt 0 view .LVU3055
	movl	%eax, %ebp
	sarl	$16, %ebp
	.loc 5 15 7 view .LVU3056
	orl	%ebp, %eax
.LVL1024:
	.loc 5 16 5 is_stmt 1 view .LVU3057
	.loc 5 16 19 is_stmt 0 view .LVU3058
	movl	%eax, %ebp
	sarl	%ebp
	.loc 5 16 23 view .LVU3059
	subl	%ebp, %eax
.LVL1025:
	.loc 5 16 23 view .LVU3060
.LBE3316:
.LBE3318:
	.loc 5 30 5 is_stmt 1 view .LVU3061
	.loc 5 30 9 is_stmt 0 view .LVU3062
	movl	%eax, %r13d
	.loc 5 32 21 view .LVU3063
	movl	%eax, %ebp
	.loc 5 30 9 view .LVU3064
	sarl	%r13d
.LVL1026:
	.loc 5 32 5 is_stmt 1 view .LVU3065
	.loc 5 32 21 is_stmt 0 view .LVU3066
	andl	$-2, %ebp
	addl	%r13d, %ebp
	.loc 5 32 37 view .LVU3067
	cmpl	%esi, %ebp
	.loc 5 34 9 view .LVU3068
	movl	%edi, %ebp
	.loc 5 32 9 view .LVU3069
	setg	%r14b
	.loc 5 32 37 view .LVU3070
	setg	%r12b
.LVL1027:
	.loc 5 33 5 is_stmt 1 view .LVU3071
	.loc 5 34 5 view .LVU3072
	.loc 5 36 5 view .LVU3073
	.loc 5 36 62 is_stmt 0 view .LVU3074
	subl	$1, %eax
.LVL1028:
	.loc 5 32 9 view .LVU3075
	movzbl	%r14b, %r14d
.LVL1029:
	.loc 5 34 34 view .LVU3076
	addl	%r14d, %r14d
.LVL1030:
	.loc 5 34 9 view .LVU3077
	subl	%r14d, %ebp
	.loc 5 36 54 view .LVU3078
	imull	%ebp, %eax
.LVL1031:
	.loc 5 36 35 view .LVU3079
	testb	%r12b, %r12b
	.loc 5 36 30 view .LVU3080
	leal	-1(%rsi,%r13), %ebp
	.loc 5 36 35 view .LVU3081
	cmove	%r8d, %ebp
	.loc 5 36 9 view .LVU3082
	addl	%ebp, %eax
.LVL1032:
	.loc 5 37 5 is_stmt 1 view .LVU3083
	.loc 5 37 5 is_stmt 0 view .LVU3084
.LBE3321:
.LBE3326:
	.loc 5 296 13 view .LVU3085
	testb	%r11b, %cl
	je	.L475
	.loc 5 305 29 view .LVU3086
	leal	1(%rdx,%rdx), %edx
.LVL1033:
	.loc 5 305 29 view .LVU3087
.LBE3294:
	.loc 5 308 28 is_stmt 1 view .LVU3088
	testl	%eax, %eax
	jle	.L464
.LVL1034:
.L463:
	.loc 5 290 13 is_stmt 0 view .LVU3089
	movl	%eax, %esi
	jmp	.L465
.LVL1035:
	.p2align 4,,10
	.p2align 3
.L475:
.LBB3327:
	.loc 5 301 43 view .LVU3090
	subl	%eax, %esi
.LVL1036:
	.loc 5 299 21 view .LVU3091
	leal	1(%r10,%rax), %r10d
.LVL1037:
	.loc 5 300 29 view .LVU3092
	leal	2(%rdx,%rdx), %edx
.LVL1038:
	.loc 5 301 29 view .LVU3093
	leal	-1(%rsi), %eax
.LVL1039:
	.loc 5 301 29 view .LVU3094
.LBE3327:
	.loc 5 308 28 is_stmt 1 view .LVU3095
	testl	%eax, %eax
	jg	.L463
.L464:
.LVL1040:
	.loc 5 308 28 is_stmt 0 view .LVU3096
.LBE3293:
.LBE3292:
	.loc 4 100 52 discriminator 2 view .LVU3097
	movq	%rbx, %rdi
	movl	%r10d, %esi
	call	_ZNSolsEi@PLT
.LVL1041:
	.loc 4 100 52 discriminator 2 view .LVU3098
	movq	%rax, %rbx
.LVL1042:
.LBB3328:
.LBI3328:
	.loc 11 110 7 is_stmt 1 view .LVU3099
.LBB3329:
.LBI3329:
	.loc 11 735 5 view .LVU3100
.LBB3330:
	.loc 11 736 39 is_stmt 0 view .LVU3101
	movq	(%rax), %rax
.LVL1043:
	.loc 11 736 39 view .LVU3102
	movq	-24(%rax), %rax
	movq	240(%rbx,%rax), %rbp
.LVL1044:
.LBB3331:
.LBI3331:
	.loc 12 449 7 is_stmt 1 view .LVU3103
.LBB3332:
.LBI3332:
	.loc 12 47 5 view .LVU3104
.LBB3333:
	.loc 12 49 7 is_stmt 0 view .LVU3105
	testq	%rbp, %rbp
	je	.L476
.LVL1045:
	.loc 12 49 7 view .LVU3106
.LBE3333:
.LBE3332:
.LBB3335:
.LBI3335:
	.loc 1 880 7 is_stmt 1 view .LVU3107
.LBB3336:
	.loc 1 882 2 view .LVU3108
	cmpb	$0, 56(%rbp)
	je	.L468
	.loc 1 883 4 view .LVU3109
.LBE3336:
.LBE3335:
.LBE3331:
	.loc 11 736 19 is_stmt 0 discriminator 1 view .LVU3110
	movsbl	67(%rbp), %esi
.LVL1046:
.L469:
	.loc 11 736 19 discriminator 1 view .LVU3111
	movq	%rbx, %rdi
	call	_ZNSo3putEc@PLT
.LVL1047:
	movq	%rax, %rdi
.LVL1048:
.LBB3342:
.LBI3342:
	.loc 11 757 5 is_stmt 1 view .LVU3112
.LBB3343:
	.loc 11 758 24 is_stmt 0 view .LVU3113
	call	_ZNSo5flushEv@PLT
.LVL1049:
	.loc 11 758 24 view .LVU3114
.LBE3343:
.LBE3342:
.LBE3330:
.LBE3329:
.LBE3328:
	.loc 4 101 5 is_stmt 1 view .LVU3115
	leaq	7(%rsp), %rdi
	movl	$7, %edx
	movl	$7, %esi
	call	_Z12writeAndReadILi1EEbR14BoundedMinReg2IXT_EEii
.LVL1050:
	.loc 4 101 5 is_stmt 0 discriminator 1 view .LVU3116
	testb	%al, %al
	je	.L477
	.loc 4 102 1 view .LVU3117
	movq	8(%rsp), %rax
	subq	%fs:40, %rax
	jne	.L474
	addq	$16, %rsp
	.cfi_remember_state
	.cfi_def_cfa_offset 48
	popq	%rbx
	.cfi_def_cfa_offset 40
	popq	%rbp
	.cfi_def_cfa_offset 32
	popq	%r12
	.cfi_def_cfa_offset 24
.LVL1051:
	.loc 4 102 1 view .LVU3118
	popq	%r13
	.cfi_def_cfa_offset 16
	popq	%r14
	.cfi_def_cfa_offset 8
	ret
.LVL1052:
	.p2align 4,,10
	.p2align 3
.L468:
	.cfi_restore_state
.LBB3350:
.LBB3348:
.LBB3346:
.LBB3344:
.LBB3340:
.LBB3339:
.LBB3337:
.LBI3337:
	.loc 1 880 7 is_stmt 1 view .LVU3119
.LBB3338:
	.loc 1 884 2 view .LVU3120
	.loc 1 884 21 is_stmt 0 view .LVU3121
	movq	%rbp, %rdi
	call	_ZNKSt5ctypeIcE13_M_widen_initEv@PLT
.LVL1053:
	.loc 1 885 2 is_stmt 1 view .LVU3122
	.loc 1 885 23 is_stmt 0 view .LVU3123
	movq	0(%rbp), %rax
	movl	$10, %esi
	leaq	_ZNKSt5ctypeIcE8do_widenEc(%rip), %rdx
	movq	48(%rax), %rax
	cmpq	%rdx, %rax
	je	.L469
	movq	%rbp, %rdi
	call	*%rax
.LVL1054:
.LBE3338:
.LBE3337:
.LBE3339:
.LBE3340:
.LBE3344:
	.loc 11 736 19 discriminator 1 view .LVU3124
	movsbl	%al, %esi
	jmp	.L469
.LVL1055:
.L477:
	.loc 11 736 19 discriminator 1 view .LVU3125
.LBE3346:
.LBE3348:
.LBE3350:
	.loc 4 101 5 discriminator 2 view .LVU3126
	leaq	.LC42(%rip), %rcx
	movl	$101, %edx
	leaq	.LC1(%rip), %rsi
	leaq	.LC43(%rip), %rdi
	call	__assert_fail@PLT
.LVL1056:
.L476:
.LBB3351:
.LBB3349:
.LBB3347:
.LBB3345:
.LBB3341:
.LBB3334:
	.loc 12 50 18 view .LVU3127
	movq	8(%rsp), %rax
	subq	%fs:40, %rax
.LVL1057:
	.loc 12 50 18 view .LVU3128
	jne	.L474
	call	_ZSt16__throw_bad_castv@PLT
.LVL1058:
.L474:
	.loc 12 50 18 view .LVU3129
.LBE3334:
.LBE3341:
.LBE3345:
.LBE3347:
.LBE3349:
.LBE3351:
	.loc 4 102 1 view .LVU3130
	call	__stack_chk_fail@PLT
.LVL1059:
	.cfi_endproc
.LFE2699:
	.size	_Z8easyTestv, .-_Z8easyTestv
	.weak	_ZTSNSt6thread11_State_implINS_8_InvokerISt5tupleIJPFvP14BoundedMinReg2ILi16EEES5_EEEEEE
	.section	.rodata._ZTSNSt6thread11_State_implINS_8_InvokerISt5tupleIJPFvP14BoundedMinReg2ILi16EEES5_EEEEEE,"aG",@progbits,_ZTSNSt6thread11_State_implINS_8_InvokerISt5tupleIJPFvP14BoundedMinReg2ILi16EEES5_EEEEEE,comdat
	.align 32
	.type	_ZTSNSt6thread11_State_implINS_8_InvokerISt5tupleIJPFvP14BoundedMinReg2ILi16EEES5_EEEEEE, @object
	.size	_ZTSNSt6thread11_State_implINS_8_InvokerISt5tupleIJPFvP14BoundedMinReg2ILi16EEES5_EEEEEE, 85
_ZTSNSt6thread11_State_implINS_8_InvokerISt5tupleIJPFvP14BoundedMinReg2ILi16EEES5_EEEEEE:
	.string	"NSt6thread11_State_implINS_8_InvokerISt5tupleIJPFvP14BoundedMinReg2ILi16EEES5_EEEEEE"
	.weak	_ZTINSt6thread11_State_implINS_8_InvokerISt5tupleIJPFvP14BoundedMinReg2ILi16EEES5_EEEEEE
	.section	.data.rel.ro._ZTINSt6thread11_State_implINS_8_InvokerISt5tupleIJPFvP14BoundedMinReg2ILi16EEES5_EEEEEE,"awG",@progbits,_ZTINSt6thread11_State_implINS_8_InvokerISt5tupleIJPFvP14BoundedMinReg2ILi16EEES5_EEEEEE,comdat
	.align 8
	.type	_ZTINSt6thread11_State_implINS_8_InvokerISt5tupleIJPFvP14BoundedMinReg2ILi16EEES5_EEEEEE, @object
	.size	_ZTINSt6thread11_State_implINS_8_InvokerISt5tupleIJPFvP14BoundedMinReg2ILi16EEES5_EEEEEE, 24
_ZTINSt6thread11_State_implINS_8_InvokerISt5tupleIJPFvP14BoundedMinReg2ILi16EEES5_EEEEEE:
	.quad	_ZTVN10__cxxabiv120__si_class_type_infoE+16
	.quad	_ZTSNSt6thread11_State_implINS_8_InvokerISt5tupleIJPFvP14BoundedMinReg2ILi16EEES5_EEEEEE
	.quad	_ZTINSt6thread6_StateE
	.weak	_ZTVNSt6thread11_State_implINS_8_InvokerISt5tupleIJPFvP14BoundedMinReg2ILi16EEES5_EEEEEE
	.section	.data.rel.ro.local._ZTVNSt6thread11_State_implINS_8_InvokerISt5tupleIJPFvP14BoundedMinReg2ILi16EEES5_EEEEEE,"awG",@progbits,_ZTVNSt6thread11_State_implINS_8_InvokerISt5tupleIJPFvP14BoundedMinReg2ILi16EEES5_EEEEEE,comdat
	.align 8
	.type	_ZTVNSt6thread11_State_implINS_8_InvokerISt5tupleIJPFvP14BoundedMinReg2ILi16EEES5_EEEEEE, @object
	.size	_ZTVNSt6thread11_State_implINS_8_InvokerISt5tupleIJPFvP14BoundedMinReg2ILi16EEES5_EEEEEE, 40
_ZTVNSt6thread11_State_implINS_8_InvokerISt5tupleIJPFvP14BoundedMinReg2ILi16EEES5_EEEEEE:
	.quad	0
	.quad	_ZTINSt6thread11_State_implINS_8_InvokerISt5tupleIJPFvP14BoundedMinReg2ILi16EEES5_EEEEEE
	.quad	_ZNSt6thread11_State_implINS_8_InvokerISt5tupleIJPFvP14BoundedMinReg2ILi16EEES5_EEEEED1Ev
	.quad	_ZNSt6thread11_State_implINS_8_InvokerISt5tupleIJPFvP14BoundedMinReg2ILi16EEES5_EEEEED0Ev
	.quad	_ZNSt6thread11_State_implINS_8_InvokerISt5tupleIJPFvP14BoundedMinReg2ILi16EEES5_EEEEE6_M_runEv
	.section	.rodata.cst16,"aM",@progbits,16
	.align 16
.LC11:
	.quad	3688503277381496880
	.quad	3976738051646829616
	.align 16
.LC12:
	.quad	3544667369688283184
	.quad	3832902143785906737
	.align 16
.LC13:
	.quad	4121136918051239473
	.quad	3689066235924983858
	.align 16
.LC14:
	.quad	3977301010190316594
	.quad	3545230328231770162
	.align 16
.LC15:
	.quad	3833465102329393715
	.quad	4121699876594726451
	.align 16
.LC16:
	.quad	3689629194468470836
	.quad	3977863968733803572
	.align 16
.LC17:
	.quad	3545793286775257140
	.quad	3834028060872880693
	.align 16
.LC18:
	.quad	4122262835138213429
	.quad	3690192153011957814
	.align 16
.LC19:
	.quad	3978426927277290550
	.quad	3546356245318744118
	.align 16
.LC20:
	.quad	3834591019416367671
	.quad	4122825793681700407
	.align 16
.LC21:
	.quad	3690755111555444792
	.quad	3978989885820777528
	.align 16
.LC22:
	.quad	3546919203862231096
	.quad	3835153977959854649
	.align 16
.LC23:
	.quad	4122263930388298034
	.quad	16106987313379638
	.text
.Letext0:
	.section	.text.unlikely
.Letext_cold0:
	.file 18 "<built-in>"
	.file 19 "/usr/lib/gcc/x86_64-pc-linux-gnu/13.1.1/include/stddef.h"
	.file 20 "/usr/include/bits/types/wint_t.h"
	.file 21 "/usr/include/bits/types/__mbstate_t.h"
	.file 22 "/usr/include/bits/types/mbstate_t.h"
	.file 23 "/usr/include/bits/types/__FILE.h"
	.file 24 "/usr/include/bits/types/struct_FILE.h"
	.file 25 "/usr/include/bits/types/FILE.h"
	.file 26 "/usr/include/c++/13.1.1/cwchar"
	.file 27 "/usr/include/c++/13.1.1/type_traits"
	.file 28 "/usr/include/c++/13.1.1/bits/exception_ptr.h"
	.file 29 "/usr/include/c++/13.1.1/bits/char_traits.h"
	.file 30 "/usr/include/c++/13.1.1/clocale"
	.file 31 "/usr/include/c++/13.1.1/bits/cpp_type_traits.h"
	.file 32 "/usr/include/c++/13.1.1/bits/stl_iterator_base_types.h"
	.file 33 "/usr/include/c++/13.1.1/debug/debug.h"
	.file 34 "/usr/include/c++/13.1.1/string_view"
	.file 35 "/usr/include/c++/13.1.1/cstdlib"
	.file 36 "/usr/include/c++/13.1.1/cstdio"
	.file 37 "/usr/include/c++/13.1.1/initializer_list"
	.file 38 "/usr/include/c++/13.1.1/cstddef"
	.file 39 "/usr/include/c++/13.1.1/bits/uses_allocator.h"
	.file 40 "/usr/include/c++/13.1.1/bits/stringfwd.h"
	.file 41 "/usr/include/c++/13.1.1/bits/ios_base.h"
	.file 42 "/usr/include/c++/13.1.1/cwctype"
	.file 43 "/usr/include/c++/13.1.1/bits/ostream.tcc"
	.file 44 "/usr/include/c++/13.1.1/iosfwd"
	.file 45 "/usr/include/c++/13.1.1/atomic"
	.file 46 "/usr/include/c++/13.1.1/cstdint"
	.file 47 "/usr/include/c++/13.1.1/ctime"
	.file 48 "/usr/include/c++/13.1.1/bits/chrono.h"
	.file 49 "/usr/include/c++/13.1.1/system_error"
	.file 50 "/usr/include/c++/13.1.1/bits/ptr_traits.h"
	.file 51 "/usr/include/c++/13.1.1/bits/utility.h"
	.file 52 "/usr/include/c++/13.1.1/iostream"
	.file 53 "/usr/include/c++/13.1.1/bits/basic_ios.tcc"
	.file 54 "/usr/include/c++/13.1.1/bits/ostream_insert.h"
	.file 55 "/usr/include/c++/13.1.1/bits/postypes.h"
	.file 56 "/usr/include/c++/13.1.1/bits/functexcept.h"
	.file 57 "/usr/include/c++/13.1.1/exception"
	.file 58 "/usr/include/wchar.h"
	.file 59 "/usr/include/bits/types/struct_tm.h"
	.file 60 "/usr/include/c++/13.1.1/bits/predefined_ops.h"
	.file 61 "/usr/include/c++/13.1.1/ext/alloc_traits.h"
	.file 62 "/usr/include/c++/13.1.1/bits/stl_iterator.h"
	.file 63 "/usr/include/locale.h"
	.file 64 "/usr/include/bits/types.h"
	.file 65 "/usr/include/bits/types/time_t.h"
	.file 66 "/usr/include/bits/types/struct_timespec.h"
	.file 67 "/usr/include/bits/types/clock_t.h"
	.file 68 "/usr/include/bits/pthreadtypes.h"
	.file 69 "/usr/include/c++/13.1.1/x86_64-pc-linux-gnu/bits/gthr-default.h"
	.file 70 "/usr/include/stdlib.h"
	.file 71 "/usr/include/bits/stdint-intn.h"
	.file 72 "/usr/include/bits/stdlib-float.h"
	.file 73 "/usr/include/bits/stdlib-bsearch.h"
	.file 74 "/usr/include/bits/types/__fpos_t.h"
	.file 75 "/usr/include/stdio.h"
	.file 76 "/usr/include/bits/stdio.h"
	.file 77 "/usr/include/bits/wctype-wchar.h"
	.file 78 "/usr/include/wctype.h"
	.file 79 "/usr/include/bits/stdint-uintn.h"
	.file 80 "/usr/include/stdint.h"
	.file 81 "/usr/include/time.h"
	.file 82 "/usr/include/c++/13.1.1/new"
	.file 83 "/usr/include/assert.h"
	.file 84 "/usr/include/c++/13.1.1/bits/memory_resource.h"